
C:/Users/lopek/OneDrive/Pulpit/studiaC/inz/NRF24/build/NRF24.elf:     file format elf32-littlearm

Sections:
Idx Name          Size      VMA       LMA       File off  Algn
  0 .text         00005108  20000000  20000000  00001000  2**3
                  CONTENTS, ALLOC, LOAD, READONLY, CODE
  1 .rodata       000001a4  20005108  20005108  00006108  2**3
                  CONTENTS, ALLOC, LOAD, READONLY, DATA
  2 .ARM.exidx    00000008  200052ac  200052ac  000062ac  2**2
                  CONTENTS, ALLOC, LOAD, READONLY, DATA
  3 .binary_info  00000018  200052b4  200052b4  000062b4  2**2
                  CONTENTS, ALLOC, LOAD, READONLY, DATA
  4 .data         000000c4  200052cc  200052cc  000062cc  2**2
                  CONTENTS, ALLOC, LOAD, DATA
  5 .tdata        00000000  20005390  20005390  00006390  2**0
                  CONTENTS, ALLOC, LOAD, DATA, THREAD_LOCAL
  6 .uninitialized_data 00000000  20005390  20005390  00006390  2**0
                  CONTENTS
  7 .tbss         00000000  20005390  20005390  00000000  2**0
                  ALLOC, THREAD_LOCAL
  8 .bss          00000220  20005390  20005390  00006390  2**3
                  ALLOC
  9 .heap         00000800  200055b0  200055b0  00006390  2**2
                  ALLOC, READONLY
 10 .scratch_x    00000000  20080000  20080000  00006390  2**0
                  CONTENTS
 11 .scratch_y    00000000  20081000  20081000  00006390  2**0
                  CONTENTS
 12 .stack_dummy  00000800  20081000  20081000  00007000  2**5
                  ALLOC, READONLY
 13 .debug_info   0002461d  00000000  00000000  00006390  2**0
                  CONTENTS, READONLY, DEBUGGING, OCTETS
 14 .debug_abbrev 00005c33  00000000  00000000  0002a9ad  2**0
                  CONTENTS, READONLY, DEBUGGING, OCTETS
 15 .debug_loclists 00011e6c  00000000  00000000  000305e0  2**0
                  CONTENTS, READONLY, DEBUGGING, OCTETS
 16 .debug_aranges 00000c80  00000000  00000000  00042450  2**3
                  CONTENTS, READONLY, DEBUGGING, OCTETS
 17 .debug_rnglists 00003341  00000000  00000000  000430d0  2**0
                  CONTENTS, READONLY, DEBUGGING, OCTETS
 18 .debug_line   000179cd  00000000  00000000  00046411  2**0
                  CONTENTS, READONLY, DEBUGGING, OCTETS
 19 .debug_str    0000611a  00000000  00000000  0005ddde  2**0
                  CONTENTS, READONLY, DEBUGGING, OCTETS
 20 .comment      00000045  00000000  00000000  00063ef8  2**0
                  CONTENTS, READONLY
 21 .ARM.attributes 00000036  00000000  00000000  00063f3d  2**0
                  CONTENTS, READONLY
 22 .debug_frame  00002228  00000000  00000000  00063f74  2**2
                  CONTENTS, READONLY, DEBUGGING, OCTETS
 23 .debug_line_str 0000028f  00000000  00000000  0006619c  2**0
                  CONTENTS, READONLY, DEBUGGING, OCTETS

C:/Users/lopek/OneDrive/Pulpit/studiaC/inz/NRF24/build/NRF24.elf:     file format elf32-littlearm


Disassembly of section .text:

20000000 <__VECTOR_TABLE>:
20000000:	20082000 	.word	0x20082000
20000004:	200001a5 	.word	0x200001a5
20000008:	2000011b 	.word	0x2000011b
2000000c:	2000011d 	.word	0x2000011d
20000010:	20000111 	.word	0x20000111
20000014:	20000111 	.word	0x20000111
20000018:	20000111 	.word	0x20000111
2000001c:	20000111 	.word	0x20000111
20000020:	20000119 	.word	0x20000119
20000024:	20000119 	.word	0x20000119
20000028:	20000119 	.word	0x20000119
2000002c:	2000011f 	.word	0x2000011f
20000030:	20000111 	.word	0x20000111
20000034:	20000119 	.word	0x20000119
20000038:	20000121 	.word	0x20000121
2000003c:	20000123 	.word	0x20000123
20000040:	20000111 	.word	0x20000111
20000044:	20000111 	.word	0x20000111
20000048:	20000111 	.word	0x20000111
2000004c:	20000111 	.word	0x20000111
20000050:	20000111 	.word	0x20000111
20000054:	20000111 	.word	0x20000111
20000058:	20000111 	.word	0x20000111
2000005c:	20000111 	.word	0x20000111
20000060:	20000111 	.word	0x20000111
20000064:	20000111 	.word	0x20000111
20000068:	20000111 	.word	0x20000111
2000006c:	20000111 	.word	0x20000111
20000070:	20000111 	.word	0x20000111
20000074:	20000111 	.word	0x20000111
20000078:	20000111 	.word	0x20000111
2000007c:	20000111 	.word	0x20000111
20000080:	20000111 	.word	0x20000111
20000084:	20000111 	.word	0x20000111
20000088:	20000111 	.word	0x20000111
2000008c:	20000111 	.word	0x20000111
20000090:	20000111 	.word	0x20000111
20000094:	20000111 	.word	0x20000111
20000098:	20000111 	.word	0x20000111
2000009c:	20000111 	.word	0x20000111
200000a0:	20000111 	.word	0x20000111
200000a4:	20000111 	.word	0x20000111
200000a8:	20000111 	.word	0x20000111
200000ac:	20000111 	.word	0x20000111
200000b0:	20000111 	.word	0x20000111
200000b4:	20000111 	.word	0x20000111
200000b8:	20000111 	.word	0x20000111
200000bc:	20000111 	.word	0x20000111
200000c0:	20000111 	.word	0x20000111
200000c4:	20000111 	.word	0x20000111
200000c8:	20000111 	.word	0x20000111
200000cc:	20000111 	.word	0x20000111
200000d0:	20000111 	.word	0x20000111
200000d4:	20000111 	.word	0x20000111
200000d8:	20000111 	.word	0x20000111
200000dc:	20000111 	.word	0x20000111
200000e0:	20000111 	.word	0x20000111
200000e4:	20000111 	.word	0x20000111
200000e8:	20000111 	.word	0x20000111
200000ec:	20000111 	.word	0x20000111
200000f0:	20000111 	.word	0x20000111
200000f4:	20000111 	.word	0x20000111
200000f8:	20000111 	.word	0x20000111
200000fc:	20000111 	.word	0x20000111
20000100:	20000111 	.word	0x20000111
20000104:	20000111 	.word	0x20000111
20000108:	20000111 	.word	0x20000111
2000010c:	20000111 	.word	0x20000111

20000110 <__unhandled_user_irq>:
20000110:	f3ef 8005 	mrs	r0, IPSR
20000114:	3810      	subs	r0, #16

20000116 <unhandled_user_irq_num_in_r0>:
20000116:	be00      	bkpt	0x0000

20000118 <isr_invalid>:
20000118:	be00      	bkpt	0x0000

2000011a <isr_nmi>:
2000011a:	be00      	bkpt	0x0000

2000011c <isr_hardfault>:
2000011c:	be00      	bkpt	0x0000

2000011e <isr_svcall>:
2000011e:	be00      	bkpt	0x0000

20000120 <isr_pendsv>:
20000120:	be00      	bkpt	0x0000

20000122 <isr_systick>:
20000122:	be00      	bkpt	0x0000

20000124 <__bi_54>:
20000124:	0006 5052 b3ab 5360 51d8 2000               ..RP..`S.Q. 

20000130 <__bi_42>:
20000130:	0006 5052 1c86 0203 51e8 2000               ..RP.....Q. 

2000013c <__bi_34>:
2000013c:	0006 5052 2254 9da2 51f0 2000               ..RPT"...Q. 

20000148 <binary_info_header>:
20000148:	7188ebf2 	.word	0x7188ebf2
2000014c:	200052b4 	.word	0x200052b4
20000150:	200052cc 	.word	0x200052cc
20000154:	200001d0 	.word	0x200001d0
20000158:	e71aa390 	.word	0xe71aa390

2000015c <__binary_info_header_end>:
2000015c:	ffffded3 	.word	0xffffded3
20000160:	10210142 	.word	0x10210142
20000164:	00000203 	.word	0x00000203
20000168:	20000000 	.word	0x20000000
2000016c:	000003ff 	.word	0x000003ff
20000170:	00000000 	.word	0x00000000
20000174:	ab123579 	.word	0xab123579

20000178 <_entry_point>:
20000178:	4820      	ldr	r0, [pc, #128]	@ (200001fc <data_cpy_table+0x2c>)
2000017a:	f45f 4140 	movs.w	r1, #49152	@ 0xc000
2000017e:	6001      	str	r1, [r0, #0]
20000180:	ee30 f710 			rcp_canary_status APSR_nzcv, delay
20000184:	d404      	bmi.n	20000190 <_entry_point+0x18>
20000186:	ec40 0780 	rcp_salt_core0 r0, r0, delay
2000018a:	ec40 0781 	rcp_salt_core1 r0, r0, delay
2000018e:	bf40      	sev
20000190:	2000      	movs	r0, #0
20000192:	f380 880a 	msr	MSPLIM, r0
20000196:	481a      	ldr	r0, [pc, #104]	@ (20000200 <data_cpy_table+0x30>)

20000198 <_enter_vtable_in_r0>:
20000198:	491a      	ldr	r1, [pc, #104]	@ (20000204 <data_cpy_table+0x34>)
2000019a:	6008      	str	r0, [r1, #0]
2000019c:	c806      	ldmia	r0!, {r1, r2}
2000019e:	f381 8808 	msr	MSP, r1
200001a2:	4710      	bx	r2

200001a4 <_reset_handler>:
200001a4:	f04f 4050 	mov.w	r0, #3489660928	@ 0xd0000000
200001a8:	6800      	ldr	r0, [r0, #0]
200001aa:	b110      	cbz	r0, 200001b2 <hold_non_core0_in_bootrom+0x6>

200001ac <hold_non_core0_in_bootrom>:
200001ac:	f04f 0000 	mov.w	r0, #0
200001b0:	e7f2      	b.n	20000198 <_enter_vtable_in_r0>
200001b2:	4915      	ldr	r1, [pc, #84]	@ (20000208 <data_cpy_table+0x38>)
200001b4:	4a15      	ldr	r2, [pc, #84]	@ (2000020c <data_cpy_table+0x3c>)
200001b6:	2000      	movs	r0, #0
200001b8:	e000      	b.n	200001bc <bss_fill_test>

200001ba <bss_fill_loop>:
200001ba:	c101      	stmia	r1!, {r0}

200001bc <bss_fill_test>:
200001bc:	4291      	cmp	r1, r2
200001be:	d1fc      	bne.n	200001ba <bss_fill_loop>

200001c0 <platform_entry>:
200001c0:	4913      	ldr	r1, [pc, #76]	@ (20000210 <data_cpy_table+0x40>)
200001c2:	4788      	blx	r1
200001c4:	4913      	ldr	r1, [pc, #76]	@ (20000214 <data_cpy_table+0x44>)
200001c6:	4788      	blx	r1
200001c8:	4913      	ldr	r1, [pc, #76]	@ (20000218 <data_cpy_table+0x48>)
200001ca:	4788      	blx	r1
200001cc:	be00      	bkpt	0x0000
200001ce:	e7fd      	b.n	200001cc <platform_entry+0xc>

200001d0 <data_cpy_table>:
200001d0:	200052cc 	.word	0x200052cc
200001d4:	200052cc 	.word	0x200052cc
200001d8:	20005390 	.word	0x20005390
200001dc:	20080000 	.word	0x20080000
200001e0:	20080000 	.word	0x20080000
200001e4:	20080000 	.word	0x20080000
200001e8:	20081000 	.word	0x20081000
200001ec:	20081000 	.word	0x20081000
200001f0:	20081000 	.word	0x20081000
200001f4:	00000000 	.word	0x00000000
200001f8:	4770      	bx	lr
200001fa:	0000      	.short	0x0000
200001fc:	e000ed88 	.word	0xe000ed88
20000200:	20000000 	.word	0x20000000
20000204:	e000ed08 	.word	0xe000ed08
20000208:	20005390 	.word	0x20005390
2000020c:	200055b0 	.word	0x200055b0
20000210:	2000361d 	.word	0x2000361d
20000214:	200004f9 	.word	0x200004f9
20000218:	20003615 	.word	0x20003615

2000021c <mutex_enter_block_until>:
2000021c:	f04f 4150 	mov.w	r1, #3489660928	@ 0xd0000000
20000220:	e92d 41f0 	stmdb	sp!, {r4, r5, r6, r7, r8, lr}
20000224:	2700      	movs	r7, #0
20000226:	4604      	mov	r4, r0
20000228:	4616      	mov	r6, r2
2000022a:	461d      	mov	r5, r3
2000022c:	f8d1 8000 	ldr.w	r8, [r1]
20000230:	e008      	b.n	20000244 <mutex_enter_block_until+0x28>
20000232:	e8c1 7f8f 	stlb	r7, [r1]
20000236:	f38c 8810 	msr	PRIMASK, ip
2000023a:	4630      	mov	r0, r6
2000023c:	4629      	mov	r1, r5
2000023e:	f001 fa91 	bl	20001764 <best_effort_wfe_or_timeout>
20000242:	b9e8      	cbnz	r0, 20000280 <mutex_enter_block_until+0x64>
20000244:	6821      	ldr	r1, [r4, #0]
20000246:	f3ef 8c10 	mrs	ip, PRIMASK
2000024a:	b672      	cpsid	i
2000024c:	e8d1 2fcf 	ldaexb	r2, [r1]
20000250:	2301      	movs	r3, #1
20000252:	2a00      	cmp	r2, #0
20000254:	d1fa      	bne.n	2000024c <mutex_enter_block_until+0x30>
20000256:	e8c1 3f42 	strexb	r2, r3, [r1]
2000025a:	2a00      	cmp	r2, #0
2000025c:	d1f6      	bne.n	2000024c <mutex_enter_block_until+0x30>
2000025e:	f3bf 8f5f 	dmb	sy
20000262:	f994 3004 	ldrsb.w	r3, [r4, #4]
20000266:	6821      	ldr	r1, [r4, #0]
20000268:	2b00      	cmp	r3, #0
2000026a:	dae2      	bge.n	20000232 <mutex_enter_block_until+0x16>
2000026c:	2300      	movs	r3, #0
2000026e:	f884 8004 	strb.w	r8, [r4, #4]
20000272:	e8c1 3f8f 	stlb	r3, [r1]
20000276:	f38c 8810 	msr	PRIMASK, ip
2000027a:	2001      	movs	r0, #1
2000027c:	e8bd 81f0 	ldmia.w	sp!, {r4, r5, r6, r7, r8, pc}
20000280:	2000      	movs	r0, #0
20000282:	e8bd 81f0 	ldmia.w	sp!, {r4, r5, r6, r7, r8, pc}
20000286:	bf00      	nop

20000288 <mutex_try_enter_block_until>:
20000288:	b530      	push	{r4, r5, lr}
2000028a:	6804      	ldr	r4, [r0, #0]
2000028c:	f3ef 8c10 	mrs	ip, PRIMASK
20000290:	b672      	cpsid	i
20000292:	e8d4 efcf 	ldaexb	lr, [r4]
20000296:	2501      	movs	r5, #1
20000298:	f1be 0f00 	cmp.w	lr, #0
2000029c:	d1f9      	bne.n	20000292 <mutex_try_enter_block_until+0xa>
2000029e:	e8c4 5f4e 	strexb	lr, r5, [r4]
200002a2:	f1be 0f00 	cmp.w	lr, #0
200002a6:	d1f4      	bne.n	20000292 <mutex_try_enter_block_until+0xa>
200002a8:	f3bf 8f5f 	dmb	sy
200002ac:	f990 4004 	ldrsb.w	r4, [r0, #4]
200002b0:	6805      	ldr	r5, [r0, #0]
200002b2:	2c00      	cmp	r4, #0
200002b4:	db10      	blt.n	200002d8 <mutex_try_enter_block_until+0x50>
200002b6:	2100      	movs	r1, #0
200002b8:	e8c5 1f8f 	stlb	r1, [r5]
200002bc:	f38c 8810 	msr	PRIMASK, ip
200002c0:	f04f 4550 	mov.w	r5, #3489660928	@ 0xd0000000
200002c4:	f995 5000 	ldrsb.w	r5, [r5]
200002c8:	42a5      	cmp	r5, r4
200002ca:	d101      	bne.n	200002d0 <mutex_try_enter_block_until+0x48>
200002cc:	4608      	mov	r0, r1
200002ce:	bd30      	pop	{r4, r5, pc}
200002d0:	e8bd 4030 	ldmia.w	sp!, {r4, r5, lr}
200002d4:	f7ff bfa2 	b.w	2000021c <mutex_enter_block_until>
200002d8:	f04f 4250 	mov.w	r2, #3489660928	@ 0xd0000000
200002dc:	6812      	ldr	r2, [r2, #0]
200002de:	2300      	movs	r3, #0
200002e0:	7102      	strb	r2, [r0, #4]
200002e2:	e8c5 3f8f 	stlb	r3, [r5]
200002e6:	f38c 8810 	msr	PRIMASK, ip
200002ea:	2001      	movs	r0, #1
200002ec:	bd30      	pop	{r4, r5, pc}
200002ee:	bf00      	nop

200002f0 <mutex_exit>:
200002f0:	6803      	ldr	r3, [r0, #0]
200002f2:	f3ef 8210 	mrs	r2, PRIMASK
200002f6:	b672      	cpsid	i
200002f8:	e8d3 cfcf 	ldaexb	ip, [r3]
200002fc:	2101      	movs	r1, #1
200002fe:	f1bc 0f00 	cmp.w	ip, #0
20000302:	d1f9      	bne.n	200002f8 <mutex_exit+0x8>
20000304:	e8c3 1f4c 	strexb	ip, r1, [r3]
20000308:	f1bc 0f00 	cmp.w	ip, #0
2000030c:	d1f4      	bne.n	200002f8 <mutex_exit+0x8>
2000030e:	f3bf 8f5f 	dmb	sy
20000312:	f04f 0cff 	mov.w	ip, #255	@ 0xff
20000316:	2300      	movs	r3, #0
20000318:	6801      	ldr	r1, [r0, #0]
2000031a:	f880 c004 	strb.w	ip, [r0, #4]
2000031e:	e8c1 3f8f 	stlb	r3, [r1]
20000322:	f382 8810 	msr	PRIMASK, r2
20000326:	bf40      	sev
20000328:	4770      	bx	lr
2000032a:	bf00      	nop

2000032c <spi_write_read_blocking>:
2000032c:	b570      	push	{r4, r5, r6, lr}
2000032e:	461d      	mov	r5, r3
20000330:	4684      	mov	ip, r0
20000332:	461c      	mov	r4, r3
20000334:	b315      	cbz	r5, 2000037c <spi_write_read_blocking+0x50>
20000336:	b1c4      	cbz	r4, 2000036a <spi_write_read_blocking+0x3e>
20000338:	f8dc 600c 	ldr.w	r6, [ip, #12]
2000033c:	f104 0e08 	add.w	lr, r4, #8
20000340:	07b6      	lsls	r6, r6, #30
20000342:	d506      	bpl.n	20000352 <spi_write_read_blocking+0x26>
20000344:	4575      	cmp	r5, lr
20000346:	d233      	bcs.n	200003b0 <spi_write_read_blocking+0x84>
20000348:	f811 0b01 	ldrb.w	r0, [r1], #1
2000034c:	3c01      	subs	r4, #1
2000034e:	f8cc 0008 	str.w	r0, [ip, #8]
20000352:	f8dc 000c 	ldr.w	r0, [ip, #12]
20000356:	0740      	lsls	r0, r0, #29
20000358:	d5ed      	bpl.n	20000336 <spi_write_read_blocking+0xa>
2000035a:	f8dc 6008 	ldr.w	r6, [ip, #8]
2000035e:	3d01      	subs	r5, #1
20000360:	f802 6b01 	strb.w	r6, [r2], #1
20000364:	2d00      	cmp	r5, #0
20000366:	d1e6      	bne.n	20000336 <spi_write_read_blocking+0xa>
20000368:	e008      	b.n	2000037c <spi_write_read_blocking+0x50>
2000036a:	f8dc 600c 	ldr.w	r6, [ip, #12]
2000036e:	0776      	lsls	r6, r6, #29
20000370:	d4f3      	bmi.n	2000035a <spi_write_read_blocking+0x2e>
20000372:	f8dc 600c 	ldr.w	r6, [ip, #12]
20000376:	0776      	lsls	r6, r6, #29
20000378:	d4ef      	bmi.n	2000035a <spi_write_read_blocking+0x2e>
2000037a:	e7f6      	b.n	2000036a <spi_write_read_blocking+0x3e>
2000037c:	b16c      	cbz	r4, 2000039a <spi_write_read_blocking+0x6e>
2000037e:	f8dc 200c 	ldr.w	r2, [ip, #12]
20000382:	0790      	lsls	r0, r2, #30
20000384:	d5fb      	bpl.n	2000037e <spi_write_read_blocking+0x52>
20000386:	f114 0f08 	cmn.w	r4, #8
2000038a:	d008      	beq.n	2000039e <spi_write_read_blocking+0x72>
2000038c:	f811 2b01 	ldrb.w	r2, [r1], #1
20000390:	3c01      	subs	r4, #1
20000392:	f8cc 2008 	str.w	r2, [ip, #8]
20000396:	2c00      	cmp	r4, #0
20000398:	d1f1      	bne.n	2000037e <spi_write_read_blocking+0x52>
2000039a:	4618      	mov	r0, r3
2000039c:	bd70      	pop	{r4, r5, r6, pc}
2000039e:	f8dc 200c 	ldr.w	r2, [ip, #12]
200003a2:	0792      	lsls	r2, r2, #30
200003a4:	d5eb      	bpl.n	2000037e <spi_write_read_blocking+0x52>
200003a6:	f8dc 200c 	ldr.w	r2, [ip, #12]
200003aa:	0792      	lsls	r2, r2, #30
200003ac:	d4f7      	bmi.n	2000039e <spi_write_read_blocking+0x72>
200003ae:	e7e6      	b.n	2000037e <spi_write_read_blocking+0x52>
200003b0:	f8dc 000c 	ldr.w	r0, [ip, #12]
200003b4:	0740      	lsls	r0, r0, #29
200003b6:	d4d0      	bmi.n	2000035a <spi_write_read_blocking+0x2e>
200003b8:	e7be      	b.n	20000338 <spi_write_read_blocking+0xc>
200003ba:	bf00      	nop

200003bc <spi_write_blocking>:
200003bc:	4684      	mov	ip, r0
200003be:	4610      	mov	r0, r2
200003c0:	b36a      	cbz	r2, 2000041e <spi_write_blocking+0x62>
200003c2:	3901      	subs	r1, #1
200003c4:	b500      	push	{lr}
200003c6:	eb01 0e02 	add.w	lr, r1, r2
200003ca:	f8dc 300c 	ldr.w	r3, [ip, #12]
200003ce:	079b      	lsls	r3, r3, #30
200003d0:	d5fb      	bpl.n	200003ca <spi_write_blocking+0xe>
200003d2:	f811 3f01 	ldrb.w	r3, [r1, #1]!
200003d6:	4571      	cmp	r1, lr
200003d8:	f8cc 3008 	str.w	r3, [ip, #8]
200003dc:	d1f5      	bne.n	200003ca <spi_write_blocking+0xe>
200003de:	f8dc 300c 	ldr.w	r3, [ip, #12]
200003e2:	0759      	lsls	r1, r3, #29
200003e4:	d505      	bpl.n	200003f2 <spi_write_blocking+0x36>
200003e6:	f8dc 3008 	ldr.w	r3, [ip, #8]
200003ea:	f8dc 300c 	ldr.w	r3, [ip, #12]
200003ee:	0759      	lsls	r1, r3, #29
200003f0:	d4f9      	bmi.n	200003e6 <spi_write_blocking+0x2a>
200003f2:	f8dc 300c 	ldr.w	r3, [ip, #12]
200003f6:	06da      	lsls	r2, r3, #27
200003f8:	d506      	bpl.n	20000408 <spi_write_blocking+0x4c>
200003fa:	f8dc 300c 	ldr.w	r3, [ip, #12]
200003fe:	06da      	lsls	r2, r3, #27
20000400:	d4f7      	bmi.n	200003f2 <spi_write_blocking+0x36>
20000402:	e001      	b.n	20000408 <spi_write_blocking+0x4c>
20000404:	f8dc 3008 	ldr.w	r3, [ip, #8]
20000408:	f8dc 300c 	ldr.w	r3, [ip, #12]
2000040c:	075b      	lsls	r3, r3, #29
2000040e:	d4f9      	bmi.n	20000404 <spi_write_blocking+0x48>
20000410:	2301      	movs	r3, #1
20000412:	f8cc 3020 	str.w	r3, [ip, #32]
20000416:	f85d fb04 	ldr.w	pc, [sp], #4
2000041a:	f8dc 3008 	ldr.w	r3, [ip, #8]
2000041e:	f8dc 300c 	ldr.w	r3, [ip, #12]
20000422:	0759      	lsls	r1, r3, #29
20000424:	d4f9      	bmi.n	2000041a <spi_write_blocking+0x5e>
20000426:	f8dc 300c 	ldr.w	r3, [ip, #12]
2000042a:	06da      	lsls	r2, r3, #27
2000042c:	d506      	bpl.n	2000043c <spi_write_blocking+0x80>
2000042e:	f8dc 300c 	ldr.w	r3, [ip, #12]
20000432:	06da      	lsls	r2, r3, #27
20000434:	d4f7      	bmi.n	20000426 <spi_write_blocking+0x6a>
20000436:	e001      	b.n	2000043c <spi_write_blocking+0x80>
20000438:	f8dc 3008 	ldr.w	r3, [ip, #8]
2000043c:	f8dc 300c 	ldr.w	r3, [ip, #12]
20000440:	075b      	lsls	r3, r3, #29
20000442:	d4f9      	bmi.n	20000438 <spi_write_blocking+0x7c>
20000444:	2301      	movs	r3, #1
20000446:	f8cc 3020 	str.w	r3, [ip, #32]
2000044a:	4770      	bx	lr

2000044c <gpio_callback>:
2000044c:	2810      	cmp	r0, #16
2000044e:	e92d 41f0 	stmdb	sp!, {r4, r5, r6, r7, r8, lr}
20000452:	d01e      	beq.n	20000492 <gpio_callback+0x46>
20000454:	2811      	cmp	r0, #17
20000456:	d007      	beq.n	20000468 <gpio_callback+0x1c>
20000458:	2812      	cmp	r0, #18
2000045a:	d00f      	beq.n	2000047c <gpio_callback+0x30>
2000045c:	280f      	cmp	r0, #15
2000045e:	d101      	bne.n	20000464 <gpio_callback+0x18>
20000460:	070b      	lsls	r3, r1, #28
20000462:	d421      	bmi.n	200004a8 <gpio_callback+0x5c>
20000464:	e8bd 81f0 	ldmia.w	sp!, {r4, r5, r6, r7, r8, pc}
20000468:	2055      	movs	r0, #85	@ 0x55
2000046a:	2301      	movs	r3, #1
2000046c:	491a      	ldr	r1, [pc, #104]	@ (200004d8 <gpio_callback+0x8c>)
2000046e:	4c1b      	ldr	r4, [pc, #108]	@ (200004dc <gpio_callback+0x90>)
20000470:	4a1b      	ldr	r2, [pc, #108]	@ (200004e0 <gpio_callback+0x94>)
20000472:	7008      	strb	r0, [r1, #0]
20000474:	7023      	strb	r3, [r4, #0]
20000476:	7013      	strb	r3, [r2, #0]
20000478:	e8bd 81f0 	ldmia.w	sp!, {r4, r5, r6, r7, r8, pc}
2000047c:	240f      	movs	r4, #15
2000047e:	2201      	movs	r2, #1
20000480:	4915      	ldr	r1, [pc, #84]	@ (200004d8 <gpio_callback+0x8c>)
20000482:	4b16      	ldr	r3, [pc, #88]	@ (200004dc <gpio_callback+0x90>)
20000484:	700c      	strb	r4, [r1, #0]
20000486:	4817      	ldr	r0, [pc, #92]	@ (200004e4 <gpio_callback+0x98>)
20000488:	e8bd 41f0 	ldmia.w	sp!, {r4, r5, r6, r7, r8, lr}
2000048c:	701a      	strb	r2, [r3, #0]
2000048e:	f003 ba1b 	b.w	200038c8 <__wrap_puts>
20000492:	24f0      	movs	r4, #240	@ 0xf0
20000494:	2201      	movs	r2, #1
20000496:	4910      	ldr	r1, [pc, #64]	@ (200004d8 <gpio_callback+0x8c>)
20000498:	4b10      	ldr	r3, [pc, #64]	@ (200004dc <gpio_callback+0x90>)
2000049a:	700c      	strb	r4, [r1, #0]
2000049c:	4812      	ldr	r0, [pc, #72]	@ (200004e8 <gpio_callback+0x9c>)
2000049e:	e8bd 41f0 	ldmia.w	sp!, {r4, r5, r6, r7, r8, lr}
200004a2:	701a      	strb	r2, [r3, #0]
200004a4:	f003 ba10 	b.w	200038c8 <__wrap_puts>
200004a8:	4c10      	ldr	r4, [pc, #64]	@ (200004ec <gpio_callback+0xa0>)
200004aa:	4d11      	ldr	r5, [pc, #68]	@ (200004f0 <gpio_callback+0xa4>)
200004ac:	e9d4 2300 	ldrd	r2, r3, [r4]
200004b0:	e9c5 2300 	strd	r2, r3, [r5]
200004b4:	f001 f9da 	bl	2000186c <time_us_64>
200004b8:	4602      	mov	r2, r0
200004ba:	460b      	mov	r3, r1
200004bc:	e9c4 2300 	strd	r2, r3, [r4]
200004c0:	e9d4 6700 	ldrd	r6, r7, [r4]
200004c4:	e9d5 4500 	ldrd	r4, r5, [r5]
200004c8:	1b32      	subs	r2, r6, r4
200004ca:	eb67 0305 	sbc.w	r3, r7, r5
200004ce:	4809      	ldr	r0, [pc, #36]	@ (200004f4 <gpio_callback+0xa8>)
200004d0:	e8bd 41f0 	ldmia.w	sp!, {r4, r5, r6, r7, r8, lr}
200004d4:	f003 ba78 	b.w	200039c8 <__wrap_printf>
200004d8:	200052cc 	.word	0x200052cc
200004dc:	200055ad 	.word	0x200055ad
200004e0:	200055af 	.word	0x200055af
200004e4:	20005118 	.word	0x20005118
200004e8:	20005108 	.word	0x20005108
200004ec:	20005510 	.word	0x20005510
200004f0:	20005518 	.word	0x20005518
200004f4:	20005124 	.word	0x20005124

200004f8 <main>:
200004f8:	e92d 4ff0 	stmdb	sp!, {r4, r5, r6, r7, r8, r9, sl, fp, lr}
200004fc:	4e58      	ldr	r6, [pc, #352]	@ (20000660 <main+0x168>)
200004fe:	b099      	sub	sp, #100	@ 0x64
20000500:	f106 0308 	add.w	r3, r6, #8
20000504:	e896 0003 	ldmia.w	r6, {r0, r1}
20000508:	9002      	str	r0, [sp, #8]
2000050a:	f88d 100c 	strb.w	r1, [sp, #12]
2000050e:	e893 0003 	ldmia.w	r3, {r0, r1}
20000512:	0c0b      	lsrs	r3, r1, #16
20000514:	9006      	str	r0, [sp, #24]
20000516:	a808      	add	r0, sp, #32
20000518:	f8ad 101c 	strh.w	r1, [sp, #28]
2000051c:	f88d 301e 	strb.w	r3, [sp, #30]
20000520:	f004 fa76 	bl	20004a10 <nrf_driver_create_client>
20000524:	494f      	ldr	r1, [pc, #316]	@ (20000664 <main+0x16c>)
20000526:	9b08      	ldr	r3, [sp, #32]
20000528:	a802      	add	r0, sp, #8
2000052a:	4798      	blx	r3
2000052c:	9b09      	ldr	r3, [sp, #36]	@ 0x24
2000052e:	a806      	add	r0, sp, #24
20000530:	4798      	blx	r3
20000532:	9b16      	ldr	r3, [sp, #88]	@ 0x58
20000534:	4798      	blx	r3
20000536:	2010      	movs	r0, #16
20000538:	f000 fa1a 	bl	20000970 <gpio_init>
2000053c:	f04f 0810 	mov.w	r8, #16
20000540:	f04f 0400 	mov.w	r4, #0
20000544:	ec44 8044 	gpioc_bit_oe_put r8, r4
20000548:	2200      	movs	r2, #0
2000054a:	2101      	movs	r1, #1
2000054c:	4640      	mov	r0, r8
2000054e:	f000 f9a7 	bl	200008a0 <gpio_set_pulls>
20000552:	2011      	movs	r0, #17
20000554:	f000 fa0c 	bl	20000970 <gpio_init>
20000558:	2711      	movs	r7, #17
2000055a:	ec44 7044 	gpioc_bit_oe_put r7, r4
2000055e:	2200      	movs	r2, #0
20000560:	2101      	movs	r1, #1
20000562:	4638      	mov	r0, r7
20000564:	f000 f99c 	bl	200008a0 <gpio_set_pulls>
20000568:	2012      	movs	r0, #18
2000056a:	f000 fa01 	bl	20000970 <gpio_init>
2000056e:	2512      	movs	r5, #18
20000570:	ec44 5044 	gpioc_bit_oe_put r5, r4
20000574:	2200      	movs	r2, #0
20000576:	2101      	movs	r1, #1
20000578:	4628      	mov	r0, r5
2000057a:	f000 f991 	bl	200008a0 <gpio_set_pulls>
2000057e:	200f      	movs	r0, #15
20000580:	f000 f9f6 	bl	20000970 <gpio_init>
20000584:	f04f 090f 	mov.w	r9, #15
20000588:	ec44 9044 	gpioc_bit_oe_put r9, r4
2000058c:	2201      	movs	r2, #1
2000058e:	4640      	mov	r0, r8
20000590:	2104      	movs	r1, #4
20000592:	4b35      	ldr	r3, [pc, #212]	@ (20000668 <main+0x170>)
20000594:	f000 f998 	bl	200008c8 <gpio_set_irq_enabled_with_callback>
20000598:	4638      	mov	r0, r7
2000059a:	2201      	movs	r2, #1
2000059c:	2104      	movs	r1, #4
2000059e:	4b32      	ldr	r3, [pc, #200]	@ (20000668 <main+0x170>)
200005a0:	f000 f992 	bl	200008c8 <gpio_set_irq_enabled_with_callback>
200005a4:	4628      	mov	r0, r5
200005a6:	2201      	movs	r2, #1
200005a8:	2104      	movs	r1, #4
200005aa:	4b2f      	ldr	r3, [pc, #188]	@ (20000668 <main+0x170>)
200005ac:	f000 f98c 	bl	200008c8 <gpio_set_irq_enabled_with_callback>
200005b0:	4648      	mov	r0, r9
200005b2:	2201      	movs	r2, #1
200005b4:	2108      	movs	r1, #8
200005b6:	4b2c      	ldr	r3, [pc, #176]	@ (20000668 <main+0x170>)
200005b8:	f000 f986 	bl	200008c8 <gpio_set_irq_enabled_with_callback>
200005bc:	4d2b      	ldr	r5, [pc, #172]	@ (2000066c <main+0x174>)
200005be:	f8df 80c4 	ldr.w	r8, [pc, #196]	@ 20000684 <main+0x18c>
200005c2:	f8df a0c4 	ldr.w	sl, [pc, #196]	@ 20000688 <main+0x190>
200005c6:	4f2a      	ldr	r7, [pc, #168]	@ (20000670 <main+0x178>)
200005c8:	f8df 90c0 	ldr.w	r9, [pc, #192]	@ 2000068c <main+0x194>
200005cc:	ac04      	add	r4, sp, #16
200005ce:	3610      	adds	r6, #16
200005d0:	e003      	b.n	200005da <main+0xe2>
200005d2:	783b      	ldrb	r3, [r7, #0]
200005d4:	bb13      	cbnz	r3, 2000061c <main+0x124>
200005d6:	f3bf 8f5f 	dmb	sy
200005da:	782b      	ldrb	r3, [r5, #0]
200005dc:	2b00      	cmp	r3, #0
200005de:	d0fa      	beq.n	200005d6 <main+0xde>
200005e0:	e896 0003 	ldmia.w	r6, {r0, r1}
200005e4:	f04f 0b00 	mov.w	fp, #0
200005e8:	6020      	str	r0, [r4, #0]
200005ea:	ac04      	add	r4, sp, #16
200005ec:	9b0b      	ldr	r3, [sp, #44]	@ 0x2c
200005ee:	f88d 1014 	strb.w	r1, [sp, #20]
200005f2:	4620      	mov	r0, r4
200005f4:	f885 b000 	strb.w	fp, [r5]
200005f8:	4798      	blx	r3
200005fa:	9b13      	ldr	r3, [sp, #76]	@ 0x4c
200005fc:	2101      	movs	r1, #1
200005fe:	481d      	ldr	r0, [pc, #116]	@ (20000674 <main+0x17c>)
20000600:	4798      	blx	r3
20000602:	f898 3000 	ldrb.w	r3, [r8]
20000606:	2b00      	cmp	r3, #0
20000608:	d0e3      	beq.n	200005d2 <main+0xda>
2000060a:	f888 b000 	strb.w	fp, [r8]
2000060e:	f001 f92d 	bl	2000186c <time_us_64>
20000612:	783b      	ldrb	r3, [r7, #0]
20000614:	e9ca 0100 	strd	r0, r1, [sl]
20000618:	2b00      	cmp	r3, #0
2000061a:	d0dc      	beq.n	200005d6 <main+0xde>
2000061c:	2300      	movs	r3, #0
2000061e:	703b      	strb	r3, [r7, #0]
20000620:	f001 f924 	bl	2000186c <time_us_64>
20000624:	460b      	mov	r3, r1
20000626:	4602      	mov	r2, r0
20000628:	e9c9 2300 	strd	r2, r3, [r9]
2000062c:	4812      	ldr	r0, [pc, #72]	@ (20000678 <main+0x180>)
2000062e:	e9da 2300 	ldrd	r2, r3, [sl]
20000632:	f003 f9c9 	bl	200039c8 <__wrap_printf>
20000636:	e9d9 2300 	ldrd	r2, r3, [r9]
2000063a:	4810      	ldr	r0, [pc, #64]	@ (2000067c <main+0x184>)
2000063c:	f003 f9c4 	bl	200039c8 <__wrap_printf>
20000640:	e9d9 2300 	ldrd	r2, r3, [r9]
20000644:	e9da bc00 	ldrd	fp, ip, [sl]
20000648:	e9cd 2300 	strd	r2, r3, [sp]
2000064c:	9b00      	ldr	r3, [sp, #0]
2000064e:	480c      	ldr	r0, [pc, #48]	@ (20000680 <main+0x188>)
20000650:	ebb3 020b 	subs.w	r2, r3, fp
20000654:	9b01      	ldr	r3, [sp, #4]
20000656:	eb63 030c 	sbc.w	r3, r3, ip
2000065a:	f003 f9b5 	bl	200039c8 <__wrap_printf>
2000065e:	e7ba      	b.n	200005d6 <main+0xde>
20000660:	2000521c 	.word	0x2000521c
20000664:	004c4b40 	.word	0x004c4b40
20000668:	2000044d 	.word	0x2000044d
2000066c:	200055ad 	.word	0x200055ad
20000670:	200055af 	.word	0x200055af
20000674:	200052cc 	.word	0x200052cc
20000678:	2000513c 	.word	0x2000513c
2000067c:	20005154 	.word	0x20005154
20000680:	2000516c 	.word	0x2000516c
20000684:	200055ae 	.word	0x200055ae
20000688:	20005510 	.word	0x20005510
2000068c:	20005518 	.word	0x20005518

20000690 <gpio_default_irq_handler>:
20000690:	f04f 4250 	mov.w	r2, #3489660928	@ 0xd0000000
20000694:	e92d 4ff8 	stmdb	sp!, {r3, r4, r5, r6, r7, r8, r9, sl, fp, lr}
20000698:	4b6d      	ldr	r3, [pc, #436]	@ (20000850 <gpio_default_irq_handler+0x1c0>)
2000069a:	f8d2 a000 	ldr.w	sl, [r2]
2000069e:	f853 702a 	ldr.w	r7, [r3, sl, lsl #2]
200006a2:	f1ba 0f00 	cmp.w	sl, #0
200006a6:	d02c      	beq.n	20000702 <gpio_default_irq_handler+0x72>
200006a8:	f8df 81b0 	ldr.w	r8, [pc, #432]	@ 2000085c <gpio_default_irq_handler+0x1cc>
200006ac:	b36f      	cbz	r7, 2000070a <gpio_default_irq_handler+0x7a>
200006ae:	2600      	movs	r6, #0
200006b0:	f8df b1a0 	ldr.w	fp, [pc, #416]	@ 20000854 <gpio_default_irq_handler+0x1c4>
200006b4:	f8df 91a0 	ldr.w	r9, [pc, #416]	@ 20000858 <gpio_default_irq_handler+0x1c8>
200006b8:	08f3      	lsrs	r3, r6, #3
200006ba:	330c      	adds	r3, #12
200006bc:	f858 5023 	ldr.w	r5, [r8, r3, lsl #2]
200006c0:	4634      	mov	r4, r6
200006c2:	3608      	adds	r6, #8
200006c4:	b1cd      	cbz	r5, 200006fa <gpio_default_irq_handler+0x6a>
200006c6:	f005 010f 	and.w	r1, r5, #15
200006ca:	4620      	mov	r0, r4
200006cc:	092d      	lsrs	r5, r5, #4
200006ce:	3401      	adds	r4, #1
200006d0:	b189      	cbz	r1, 200006f6 <gpio_default_irq_handler+0x66>
200006d2:	f85b 202a 	ldr.w	r2, [fp, sl, lsl #2]
200006d6:	f000 0307 	and.w	r3, r0, #7
200006da:	40c2      	lsrs	r2, r0
200006dc:	ea4f 0cd0 	mov.w	ip, r0, lsr #3
200006e0:	009b      	lsls	r3, r3, #2
200006e2:	07d2      	lsls	r2, r2, #31
200006e4:	fa01 f303 	lsl.w	r3, r1, r3
200006e8:	f10c 0c8c 	add.w	ip, ip, #140	@ 0x8c
200006ec:	d402      	bmi.n	200006f4 <gpio_default_irq_handler+0x64>
200006ee:	f849 302c 	str.w	r3, [r9, ip, lsl #2]
200006f2:	47b8      	blx	r7
200006f4:	b10d      	cbz	r5, 200006fa <gpio_default_irq_handler+0x6a>
200006f6:	42b4      	cmp	r4, r6
200006f8:	d3e5      	bcc.n	200006c6 <gpio_default_irq_handler+0x36>
200006fa:	2e20      	cmp	r6, #32
200006fc:	d1dc      	bne.n	200006b8 <gpio_default_irq_handler+0x28>
200006fe:	e8bd 8ff8 	ldmia.w	sp!, {r3, r4, r5, r6, r7, r8, r9, sl, fp, pc}
20000702:	f8df 815c 	ldr.w	r8, [pc, #348]	@ 20000860 <gpio_default_irq_handler+0x1d0>
20000706:	2f00      	cmp	r7, #0
20000708:	d1d1      	bne.n	200006ae <gpio_default_irq_handler+0x1e>
2000070a:	4852      	ldr	r0, [pc, #328]	@ (20000854 <gpio_default_irq_handler+0x1c4>)
2000070c:	08f9      	lsrs	r1, r7, #3
2000070e:	f101 030c 	add.w	r3, r1, #12
20000712:	f858 3023 	ldr.w	r3, [r8, r3, lsl #2]
20000716:	2b00      	cmp	r3, #0
20000718:	d07b      	beq.n	20000812 <gpio_default_irq_handler+0x182>
2000071a:	f013 050f 	ands.w	r5, r3, #15
2000071e:	ea4f 1213 	mov.w	r2, r3, lsr #4
20000722:	d00a      	beq.n	2000073a <gpio_default_irq_handler+0xaa>
20000724:	f850 402a 	ldr.w	r4, [r0, sl, lsl #2]
20000728:	40fc      	lsrs	r4, r7
2000072a:	07e6      	lsls	r6, r4, #31
2000072c:	d403      	bmi.n	20000736 <gpio_default_irq_handler+0xa6>
2000072e:	4c4a      	ldr	r4, [pc, #296]	@ (20000858 <gpio_default_irq_handler+0x1c8>)
20000730:	318c      	adds	r1, #140	@ 0x8c
20000732:	f844 5021 	str.w	r5, [r4, r1, lsl #2]
20000736:	2a00      	cmp	r2, #0
20000738:	d06b      	beq.n	20000812 <gpio_default_irq_handler+0x182>
2000073a:	f012 020f 	ands.w	r2, r2, #15
2000073e:	ea4f 2113 	mov.w	r1, r3, lsr #8
20000742:	d00d      	beq.n	20000760 <gpio_default_irq_handler+0xd0>
20000744:	f850 402a 	ldr.w	r4, [r0, sl, lsl #2]
20000748:	1c7d      	adds	r5, r7, #1
2000074a:	40ec      	lsrs	r4, r5
2000074c:	07e4      	lsls	r4, r4, #31
2000074e:	d405      	bmi.n	2000075c <gpio_default_irq_handler+0xcc>
20000750:	08ec      	lsrs	r4, r5, #3
20000752:	4d41      	ldr	r5, [pc, #260]	@ (20000858 <gpio_default_irq_handler+0x1c8>)
20000754:	0112      	lsls	r2, r2, #4
20000756:	348c      	adds	r4, #140	@ 0x8c
20000758:	f845 2024 	str.w	r2, [r5, r4, lsl #2]
2000075c:	2900      	cmp	r1, #0
2000075e:	d058      	beq.n	20000812 <gpio_default_irq_handler+0x182>
20000760:	f011 010f 	ands.w	r1, r1, #15
20000764:	ea4f 3213 	mov.w	r2, r3, lsr #12
20000768:	d007      	beq.n	2000077a <gpio_default_irq_handler+0xea>
2000076a:	f850 402a 	ldr.w	r4, [r0, sl, lsl #2]
2000076e:	1cbd      	adds	r5, r7, #2
20000770:	40ec      	lsrs	r4, r5
20000772:	07e6      	lsls	r6, r4, #31
20000774:	d557      	bpl.n	20000826 <gpio_default_irq_handler+0x196>
20000776:	2a00      	cmp	r2, #0
20000778:	d04b      	beq.n	20000812 <gpio_default_irq_handler+0x182>
2000077a:	f012 020f 	ands.w	r2, r2, #15
2000077e:	ea4f 4113 	mov.w	r1, r3, lsr #16
20000782:	d007      	beq.n	20000794 <gpio_default_irq_handler+0x104>
20000784:	f850 402a 	ldr.w	r4, [r0, sl, lsl #2]
20000788:	1cfd      	adds	r5, r7, #3
2000078a:	40ec      	lsrs	r4, r5
2000078c:	07e4      	lsls	r4, r4, #31
2000078e:	d551      	bpl.n	20000834 <gpio_default_irq_handler+0x1a4>
20000790:	2900      	cmp	r1, #0
20000792:	d03e      	beq.n	20000812 <gpio_default_irq_handler+0x182>
20000794:	f011 010f 	ands.w	r1, r1, #15
20000798:	ea4f 5213 	mov.w	r2, r3, lsr #20
2000079c:	d007      	beq.n	200007ae <gpio_default_irq_handler+0x11e>
2000079e:	4c2d      	ldr	r4, [pc, #180]	@ (20000854 <gpio_default_irq_handler+0x1c4>)
200007a0:	f854 502a 	ldr.w	r5, [r4, sl, lsl #2]
200007a4:	1d3c      	adds	r4, r7, #4
200007a6:	40e5      	lsrs	r5, r4
200007a8:	07ee      	lsls	r6, r5, #31
200007aa:	d54a      	bpl.n	20000842 <gpio_default_irq_handler+0x1b2>
200007ac:	b38a      	cbz	r2, 20000812 <gpio_default_irq_handler+0x182>
200007ae:	f012 020f 	ands.w	r2, r2, #15
200007b2:	ea4f 6113 	mov.w	r1, r3, lsr #24
200007b6:	d00d      	beq.n	200007d4 <gpio_default_irq_handler+0x144>
200007b8:	4c26      	ldr	r4, [pc, #152]	@ (20000854 <gpio_default_irq_handler+0x1c4>)
200007ba:	f854 502a 	ldr.w	r5, [r4, sl, lsl #2]
200007be:	1d7c      	adds	r4, r7, #5
200007c0:	40e5      	lsrs	r5, r4
200007c2:	07ed      	lsls	r5, r5, #31
200007c4:	d405      	bmi.n	200007d2 <gpio_default_irq_handler+0x142>
200007c6:	4d24      	ldr	r5, [pc, #144]	@ (20000858 <gpio_default_irq_handler+0x1c8>)
200007c8:	08e4      	lsrs	r4, r4, #3
200007ca:	0512      	lsls	r2, r2, #20
200007cc:	348c      	adds	r4, #140	@ 0x8c
200007ce:	f845 2024 	str.w	r2, [r5, r4, lsl #2]
200007d2:	b1f1      	cbz	r1, 20000812 <gpio_default_irq_handler+0x182>
200007d4:	f011 010f 	ands.w	r1, r1, #15
200007d8:	ea4f 7313 	mov.w	r3, r3, lsr #28
200007dc:	d01f      	beq.n	2000081e <gpio_default_irq_handler+0x18e>
200007de:	4c1d      	ldr	r4, [pc, #116]	@ (20000854 <gpio_default_irq_handler+0x1c4>)
200007e0:	1dbd      	adds	r5, r7, #6
200007e2:	f854 202a 	ldr.w	r2, [r4, sl, lsl #2]
200007e6:	40ea      	lsrs	r2, r5
200007e8:	07d6      	lsls	r6, r2, #31
200007ea:	d405      	bmi.n	200007f8 <gpio_default_irq_handler+0x168>
200007ec:	08ea      	lsrs	r2, r5, #3
200007ee:	4d1a      	ldr	r5, [pc, #104]	@ (20000858 <gpio_default_irq_handler+0x1c8>)
200007f0:	0609      	lsls	r1, r1, #24
200007f2:	328c      	adds	r2, #140	@ 0x8c
200007f4:	f845 1022 	str.w	r1, [r5, r2, lsl #2]
200007f8:	b15b      	cbz	r3, 20000812 <gpio_default_irq_handler+0x182>
200007fa:	f854 102a 	ldr.w	r1, [r4, sl, lsl #2]
200007fe:	1dfa      	adds	r2, r7, #7
20000800:	40d1      	lsrs	r1, r2
20000802:	07c9      	lsls	r1, r1, #31
20000804:	d405      	bmi.n	20000812 <gpio_default_irq_handler+0x182>
20000806:	4914      	ldr	r1, [pc, #80]	@ (20000858 <gpio_default_irq_handler+0x1c8>)
20000808:	08d2      	lsrs	r2, r2, #3
2000080a:	071b      	lsls	r3, r3, #28
2000080c:	328c      	adds	r2, #140	@ 0x8c
2000080e:	f841 3022 	str.w	r3, [r1, r2, lsl #2]
20000812:	3708      	adds	r7, #8
20000814:	2f20      	cmp	r7, #32
20000816:	f47f af79 	bne.w	2000070c <gpio_default_irq_handler+0x7c>
2000081a:	e8bd 8ff8 	ldmia.w	sp!, {r3, r4, r5, r6, r7, r8, r9, sl, fp, pc}
2000081e:	2b00      	cmp	r3, #0
20000820:	d0f7      	beq.n	20000812 <gpio_default_irq_handler+0x182>
20000822:	4c0c      	ldr	r4, [pc, #48]	@ (20000854 <gpio_default_irq_handler+0x1c4>)
20000824:	e7e9      	b.n	200007fa <gpio_default_irq_handler+0x16a>
20000826:	08ec      	lsrs	r4, r5, #3
20000828:	4d0b      	ldr	r5, [pc, #44]	@ (20000858 <gpio_default_irq_handler+0x1c8>)
2000082a:	0209      	lsls	r1, r1, #8
2000082c:	348c      	adds	r4, #140	@ 0x8c
2000082e:	f845 1024 	str.w	r1, [r5, r4, lsl #2]
20000832:	e7a0      	b.n	20000776 <gpio_default_irq_handler+0xe6>
20000834:	08ec      	lsrs	r4, r5, #3
20000836:	4d08      	ldr	r5, [pc, #32]	@ (20000858 <gpio_default_irq_handler+0x1c8>)
20000838:	0312      	lsls	r2, r2, #12
2000083a:	348c      	adds	r4, #140	@ 0x8c
2000083c:	f845 2024 	str.w	r2, [r5, r4, lsl #2]
20000840:	e7a6      	b.n	20000790 <gpio_default_irq_handler+0x100>
20000842:	4d05      	ldr	r5, [pc, #20]	@ (20000858 <gpio_default_irq_handler+0x1c8>)
20000844:	08e4      	lsrs	r4, r4, #3
20000846:	0409      	lsls	r1, r1, #16
20000848:	348c      	adds	r4, #140	@ 0x8c
2000084a:	f845 1024 	str.w	r1, [r5, r4, lsl #2]
2000084e:	e7ad      	b.n	200007ac <gpio_default_irq_handler+0x11c>
20000850:	20005540 	.word	0x20005540
20000854:	200055a0 	.word	0x200055a0
20000858:	40028000 	.word	0x40028000
2000085c:	40028290 	.word	0x40028290
20000860:	40028248 	.word	0x40028248

20000864 <gpio_set_function>:
20000864:	b410      	push	{r4}
20000866:	f44f 7480 	mov.w	r4, #256	@ 0x100
2000086a:	4b0c      	ldr	r3, [pc, #48]	@ (2000089c <gpio_set_function+0x38>)
2000086c:	f853 2020 	ldr.w	r2, [r3, r0, lsl #2]
20000870:	eb03 0380 	add.w	r3, r3, r0, lsl #2
20000874:	00c0      	lsls	r0, r0, #3
20000876:	f082 0240 	eor.w	r2, r2, #64	@ 0x40
2000087a:	f100 4080 	add.w	r0, r0, #1073741824	@ 0x40000000
2000087e:	f503 5c80 	add.w	ip, r3, #4096	@ 0x1000
20000882:	f002 02c0 	and.w	r2, r2, #192	@ 0xc0
20000886:	f500 3020 	add.w	r0, r0, #163840	@ 0x28000
2000088a:	f503 5340 	add.w	r3, r3, #12288	@ 0x3000
2000088e:	f8cc 2000 	str.w	r2, [ip]
20000892:	6041      	str	r1, [r0, #4]
20000894:	601c      	str	r4, [r3, #0]
20000896:	f85d 4b04 	ldr.w	r4, [sp], #4
2000089a:	4770      	bx	lr
2000089c:	40038004 	.word	0x40038004

200008a0 <gpio_set_pulls>:
200008a0:	b410      	push	{r4}
200008a2:	4c08      	ldr	r4, [pc, #32]	@ (200008c4 <gpio_set_pulls+0x24>)
200008a4:	00c9      	lsls	r1, r1, #3
200008a6:	ea41 0182 	orr.w	r1, r1, r2, lsl #2
200008aa:	f854 2020 	ldr.w	r2, [r4, r0, lsl #2]
200008ae:	eb04 0380 	add.w	r3, r4, r0, lsl #2
200008b2:	4051      	eors	r1, r2
200008b4:	f503 5380 	add.w	r3, r3, #4096	@ 0x1000
200008b8:	f001 010c 	and.w	r1, r1, #12
200008bc:	f85d 4b04 	ldr.w	r4, [sp], #4
200008c0:	6019      	str	r1, [r3, #0]
200008c2:	4770      	bx	lr
200008c4:	40038004 	.word	0x40038004

200008c8 <gpio_set_irq_enabled_with_callback>:
200008c8:	e92d 43f0 	stmdb	sp!, {r4, r5, r6, r7, r8, r9, lr}
200008cc:	f04f 4950 	mov.w	r9, #3489660928	@ 0xd0000000
200008d0:	461f      	mov	r7, r3
200008d2:	f8df 8098 	ldr.w	r8, [pc, #152]	@ 2000096c <gpio_set_irq_enabled_with_callback+0xa4>
200008d6:	f8d9 3000 	ldr.w	r3, [r9]
200008da:	4616      	mov	r6, r2
200008dc:	f858 2023 	ldr.w	r2, [r8, r3, lsl #2]
200008e0:	4604      	mov	r4, r0
200008e2:	460d      	mov	r5, r1
200008e4:	b083      	sub	sp, #12
200008e6:	b332      	cbz	r2, 20000936 <gpio_set_irq_enabled_with_callback+0x6e>
200008e8:	b387      	cbz	r7, 2000094c <gpio_set_irq_enabled_with_callback+0x84>
200008ea:	f848 7023 	str.w	r7, [r8, r3, lsl #2]
200008ee:	f04f 4350 	mov.w	r3, #3489660928	@ 0xd0000000
200008f2:	681b      	ldr	r3, [r3, #0]
200008f4:	b1bb      	cbz	r3, 20000926 <gpio_set_irq_enabled_with_callback+0x5e>
200008f6:	4b19      	ldr	r3, [pc, #100]	@ (2000095c <gpio_set_irq_enabled_with_callback+0x94>)
200008f8:	08e1      	lsrs	r1, r4, #3
200008fa:	f004 0407 	and.w	r4, r4, #7
200008fe:	4a18      	ldr	r2, [pc, #96]	@ (20000960 <gpio_set_irq_enabled_with_callback+0x98>)
20000900:	00a4      	lsls	r4, r4, #2
20000902:	fa05 f404 	lsl.w	r4, r5, r4
20000906:	eb03 0381 	add.w	r3, r3, r1, lsl #2
2000090a:	318c      	adds	r1, #140	@ 0x8c
2000090c:	f842 4021 	str.w	r4, [r2, r1, lsl #2]
20000910:	b15e      	cbz	r6, 2000092a <gpio_set_irq_enabled_with_callback+0x62>
20000912:	2101      	movs	r1, #1
20000914:	2015      	movs	r0, #21
20000916:	f503 5300 	add.w	r3, r3, #8192	@ 0x2000
2000091a:	601c      	str	r4, [r3, #0]
2000091c:	b003      	add	sp, #12
2000091e:	e8bd 43f0 	ldmia.w	sp!, {r4, r5, r6, r7, r8, r9, lr}
20000922:	f000 b8cd 	b.w	20000ac0 <irq_set_enabled>
20000926:	4b0f      	ldr	r3, [pc, #60]	@ (20000964 <gpio_set_irq_enabled_with_callback+0x9c>)
20000928:	e7e6      	b.n	200008f8 <gpio_set_irq_enabled_with_callback+0x30>
2000092a:	f503 5340 	add.w	r3, r3, #12288	@ 0x3000
2000092e:	601c      	str	r4, [r3, #0]
20000930:	b003      	add	sp, #12
20000932:	e8bd 83f0 	ldmia.w	sp!, {r4, r5, r6, r7, r8, r9, pc}
20000936:	2f00      	cmp	r7, #0
20000938:	d0dc      	beq.n	200008f4 <gpio_set_irq_enabled_with_callback+0x2c>
2000093a:	2015      	movs	r0, #21
2000093c:	490a      	ldr	r1, [pc, #40]	@ (20000968 <gpio_set_irq_enabled_with_callback+0xa0>)
2000093e:	f848 7023 	str.w	r7, [r8, r3, lsl #2]
20000942:	f000 f903 	bl	20000b4c <irq_add_shared_handler>
20000946:	f8d9 3000 	ldr.w	r3, [r9]
2000094a:	e7d3      	b.n	200008f4 <gpio_set_irq_enabled_with_callback+0x2c>
2000094c:	2015      	movs	r0, #21
2000094e:	4906      	ldr	r1, [pc, #24]	@ (20000968 <gpio_set_irq_enabled_with_callback+0xa0>)
20000950:	9301      	str	r3, [sp, #4]
20000952:	f000 f9ef 	bl	20000d34 <irq_remove_handler>
20000956:	9b01      	ldr	r3, [sp, #4]
20000958:	e7c7      	b.n	200008ea <gpio_set_irq_enabled_with_callback+0x22>
2000095a:	bf00      	nop
2000095c:	40028290 	.word	0x40028290
20000960:	40028000 	.word	0x40028000
20000964:	40028248 	.word	0x40028248
20000968:	20000691 	.word	0x20000691
2000096c:	20005540 	.word	0x20005540

20000970 <gpio_init>:
20000970:	b430      	push	{r4, r5}
20000972:	f04f 0300 	mov.w	r3, #0
20000976:	ec43 0044 	gpioc_bit_oe_put r0, r3
2000097a:	ec43 0040 	gpioc_bit_out_put r0, r3
2000097e:	2505      	movs	r5, #5
20000980:	f44f 7480 	mov.w	r4, #256	@ 0x100
20000984:	4b0b      	ldr	r3, [pc, #44]	@ (200009b4 <gpio_init+0x44>)
20000986:	00c2      	lsls	r2, r0, #3
20000988:	f853 1020 	ldr.w	r1, [r3, r0, lsl #2]
2000098c:	eb03 0080 	add.w	r0, r3, r0, lsl #2
20000990:	f081 0140 	eor.w	r1, r1, #64	@ 0x40
20000994:	f102 4380 	add.w	r3, r2, #1073741824	@ 0x40000000
20000998:	f503 3320 	add.w	r3, r3, #163840	@ 0x28000
2000099c:	f001 02c0 	and.w	r2, r1, #192	@ 0xc0
200009a0:	f500 5180 	add.w	r1, r0, #4096	@ 0x1000
200009a4:	f500 5040 	add.w	r0, r0, #12288	@ 0x3000
200009a8:	600a      	str	r2, [r1, #0]
200009aa:	605d      	str	r5, [r3, #4]
200009ac:	6004      	str	r4, [r0, #0]
200009ae:	bc30      	pop	{r4, r5}
200009b0:	4770      	bx	lr
200009b2:	bf00      	nop
200009b4:	40038004 	.word	0x40038004

200009b8 <panic>:
200009b8:	b40f      	push	{r0, r1, r2, r3}
200009ba:	b500      	push	{lr}
200009bc:	b083      	sub	sp, #12
200009be:	9c04      	ldr	r4, [sp, #16]
200009c0:	4807      	ldr	r0, [pc, #28]	@ (200009e0 <panic+0x28>)
200009c2:	f002 ff81 	bl	200038c8 <__wrap_puts>
200009c6:	b13c      	cbz	r4, 200009d8 <panic+0x20>
200009c8:	a905      	add	r1, sp, #20
200009ca:	4620      	mov	r0, r4
200009cc:	9101      	str	r1, [sp, #4]
200009ce:	f002 fe07 	bl	200035e0 <weak_raw_vprintf>
200009d2:	4804      	ldr	r0, [pc, #16]	@ (200009e4 <panic+0x2c>)
200009d4:	f002 ff78 	bl	200038c8 <__wrap_puts>
200009d8:	2001      	movs	r0, #1
200009da:	f002 fe19 	bl	20003610 <_exit>
200009de:	bf00      	nop
200009e0:	20005188 	.word	0x20005188
200009e4:	20005198 	.word	0x20005198

200009e8 <hw_claim_or_assert>:
200009e8:	b570      	push	{r4, r5, r6, lr}
200009ea:	4686      	mov	lr, r0
200009ec:	f3ef 8510 	mrs	r5, PRIMASK
200009f0:	b672      	cpsid	i
200009f2:	4c12      	ldr	r4, [pc, #72]	@ (20000a3c <hw_claim_or_assert+0x54>)
200009f4:	e8d4 6fcf 	ldaexb	r6, [r4]
200009f8:	2001      	movs	r0, #1
200009fa:	2e00      	cmp	r6, #0
200009fc:	d1fa      	bne.n	200009f4 <hw_claim_or_assert+0xc>
200009fe:	e8c4 0f46 	strexb	r6, r0, [r4]
20000a02:	2e00      	cmp	r6, #0
20000a04:	d1f6      	bne.n	200009f4 <hw_claim_or_assert+0xc>
20000a06:	f3bf 8f5f 	dmb	sy
20000a0a:	f04f 0c01 	mov.w	ip, #1
20000a0e:	08c8      	lsrs	r0, r1, #3
20000a10:	f001 0307 	and.w	r3, r1, #7
20000a14:	fa0c f303 	lsl.w	r3, ip, r3
20000a18:	f81e c000 	ldrb.w	ip, [lr, r0]
20000a1c:	ea1c 0603 	ands.w	r6, ip, r3
20000a20:	d108      	bne.n	20000a34 <hw_claim_or_assert+0x4c>
20000a22:	ea4c 0c03 	orr.w	ip, ip, r3
20000a26:	f80e c000 	strb.w	ip, [lr, r0]
20000a2a:	e8c4 6f8f 	stlb	r6, [r4]
20000a2e:	f385 8810 	msr	PRIMASK, r5
20000a32:	bd70      	pop	{r4, r5, r6, pc}
20000a34:	4610      	mov	r0, r2
20000a36:	f7ff ffbf 	bl	200009b8 <panic>
20000a3a:	bf00      	nop
20000a3c:	2000552b 	.word	0x2000552b

20000a40 <next_striped_spin_lock_num>:
20000a40:	4a04      	ldr	r2, [pc, #16]	@ (20000a54 <next_striped_spin_lock_num+0x14>)
20000a42:	7810      	ldrb	r0, [r2, #0]
20000a44:	1c43      	adds	r3, r0, #1
20000a46:	b2db      	uxtb	r3, r3
20000a48:	2b18      	cmp	r3, #24
20000a4a:	bf28      	it	cs
20000a4c:	2310      	movcs	r3, #16
20000a4e:	7013      	strb	r3, [r2, #0]
20000a50:	4770      	bx	lr
20000a52:	bf00      	nop
20000a54:	200052cd 	.word	0x200052cd

20000a58 <spinlock_set_extexclall>:
20000a58:	f04f 22e0 	mov.w	r2, #3758153728	@ 0xe000e000
20000a5c:	6893      	ldr	r3, [r2, #8]
20000a5e:	f043 5300 	orr.w	r3, r3, #536870912	@ 0x20000000
20000a62:	6093      	str	r3, [r2, #8]
20000a64:	4770      	bx	lr
20000a66:	bf00      	nop

20000a68 <spin_locks_reset>:
20000a68:	2100      	movs	r1, #0
20000a6a:	4b04      	ldr	r3, [pc, #16]	@ (20000a7c <spin_locks_reset+0x14>)
20000a6c:	f103 0220 	add.w	r2, r3, #32
20000a70:	e8c3 1f8f 	stlb	r1, [r3]
20000a74:	3301      	adds	r3, #1
20000a76:	4293      	cmp	r3, r2
20000a78:	d1fa      	bne.n	20000a70 <spin_locks_reset+0x8>
20000a7a:	4770      	bx	lr
20000a7c:	20005520 	.word	0x20005520

20000a80 <runtime_init_per_core_irq_priorities>:
20000a80:	f04f 23e0 	mov.w	r3, #3758153728	@ 0xe000e000
20000a84:	f04f 3280 	mov.w	r2, #2155905152	@ 0x80808080
20000a88:	f8c3 2400 	str.w	r2, [r3, #1024]	@ 0x400
20000a8c:	f8c3 2404 	str.w	r2, [r3, #1028]	@ 0x404
20000a90:	f8c3 2408 	str.w	r2, [r3, #1032]	@ 0x408
20000a94:	f8c3 240c 	str.w	r2, [r3, #1036]	@ 0x40c
20000a98:	f8c3 2410 	str.w	r2, [r3, #1040]	@ 0x410
20000a9c:	f8c3 2414 	str.w	r2, [r3, #1044]	@ 0x414
20000aa0:	f8c3 2418 	str.w	r2, [r3, #1048]	@ 0x418
20000aa4:	f8c3 241c 	str.w	r2, [r3, #1052]	@ 0x41c
20000aa8:	f8c3 2420 	str.w	r2, [r3, #1056]	@ 0x420
20000aac:	f8c3 2424 	str.w	r2, [r3, #1060]	@ 0x424
20000ab0:	f8c3 2428 	str.w	r2, [r3, #1064]	@ 0x428
20000ab4:	f8c3 242c 	str.w	r2, [r3, #1068]	@ 0x42c
20000ab8:	f8c3 2430 	str.w	r2, [r3, #1072]	@ 0x430
20000abc:	b662      	cpsie	i
20000abe:	4770      	bx	lr

20000ac0 <irq_set_enabled>:
20000ac0:	2301      	movs	r3, #1
20000ac2:	f000 021f 	and.w	r2, r0, #31
20000ac6:	4093      	lsls	r3, r2
20000ac8:	0940      	lsrs	r0, r0, #5
20000aca:	b141      	cbz	r1, 20000ade <irq_set_enabled+0x1e>
20000acc:	0080      	lsls	r0, r0, #2
20000ace:	f100 4060 	add.w	r0, r0, #3758096384	@ 0xe0000000
20000ad2:	f500 4061 	add.w	r0, r0, #57600	@ 0xe100
20000ad6:	f8c0 3180 	str.w	r3, [r0, #384]	@ 0x180
20000ada:	6003      	str	r3, [r0, #0]
20000adc:	4770      	bx	lr
20000ade:	4a02      	ldr	r2, [pc, #8]	@ (20000ae8 <irq_set_enabled+0x28>)
20000ae0:	3020      	adds	r0, #32
20000ae2:	f842 3020 	str.w	r3, [r2, r0, lsl #2]
20000ae6:	4770      	bx	lr
20000ae8:	e000e100 	.word	0xe000e100

20000aec <irq_set_exclusive_handler>:
20000aec:	b5f8      	push	{r3, r4, r5, r6, r7, lr}
20000aee:	460d      	mov	r5, r1
20000af0:	f3ef 8710 	mrs	r7, PRIMASK
20000af4:	b672      	cpsid	i
20000af6:	4e12      	ldr	r6, [pc, #72]	@ (20000b40 <irq_set_exclusive_handler+0x54>)
20000af8:	e8d6 2fcf 	ldaexb	r2, [r6]
20000afc:	2301      	movs	r3, #1
20000afe:	2a00      	cmp	r2, #0
20000b00:	d1fa      	bne.n	20000af8 <irq_set_exclusive_handler+0xc>
20000b02:	e8c6 3f42 	strexb	r2, r3, [r6]
20000b06:	2a00      	cmp	r2, #0
20000b08:	d1f6      	bne.n	20000af8 <irq_set_exclusive_handler+0xc>
20000b0a:	f3bf 8f5f 	dmb	sy
20000b0e:	4b0d      	ldr	r3, [pc, #52]	@ (20000b44 <irq_set_exclusive_handler+0x58>)
20000b10:	f100 0410 	add.w	r4, r0, #16
20000b14:	689b      	ldr	r3, [r3, #8]
20000b16:	4a0c      	ldr	r2, [pc, #48]	@ (20000b48 <irq_set_exclusive_handler+0x5c>)
20000b18:	f853 3024 	ldr.w	r3, [r3, r4, lsl #2]
20000b1c:	4293      	cmp	r3, r2
20000b1e:	d003      	beq.n	20000b28 <irq_set_exclusive_handler+0x3c>
20000b20:	4299      	cmp	r1, r3
20000b22:	d001      	beq.n	20000b28 <irq_set_exclusive_handler+0x3c>
20000b24:	f000 ffbc 	bl	20001aa0 <hard_assertion_failure>
20000b28:	4b06      	ldr	r3, [pc, #24]	@ (20000b44 <irq_set_exclusive_handler+0x58>)
20000b2a:	689b      	ldr	r3, [r3, #8]
20000b2c:	f843 5024 	str.w	r5, [r3, r4, lsl #2]
20000b30:	f3bf 8f5f 	dmb	sy
20000b34:	2300      	movs	r3, #0
20000b36:	e8c6 3f8f 	stlb	r3, [r6]
20000b3a:	f387 8810 	msr	PRIMASK, r7
20000b3e:	bdf8      	pop	{r3, r4, r5, r6, r7, pc}
20000b40:	20005529 	.word	0x20005529
20000b44:	e000ed00 	.word	0xe000ed00
20000b48:	20000111 	.word	0x20000111

20000b4c <irq_add_shared_handler>:
20000b4c:	e92d 4ff0 	stmdb	sp!, {r4, r5, r6, r7, r8, r9, sl, fp, lr}
20000b50:	4681      	mov	r9, r0
20000b52:	468b      	mov	fp, r1
20000b54:	4616      	mov	r6, r2
20000b56:	b083      	sub	sp, #12
20000b58:	f3ef 8310 	mrs	r3, PRIMASK
20000b5c:	b672      	cpsid	i
20000b5e:	f8df a1d0 	ldr.w	sl, [pc, #464]	@ 20000d30 <irq_add_shared_handler+0x1e4>
20000b62:	9300      	str	r3, [sp, #0]
20000b64:	e8da 1fcf 	ldaexb	r1, [sl]
20000b68:	2301      	movs	r3, #1
20000b6a:	2900      	cmp	r1, #0
20000b6c:	d1fa      	bne.n	20000b64 <irq_add_shared_handler+0x18>
20000b6e:	e8ca 3f41 	strexb	r1, r3, [sl]
20000b72:	2900      	cmp	r1, #0
20000b74:	d1f6      	bne.n	20000b64 <irq_add_shared_handler+0x18>
20000b76:	f3bf 8f5f 	dmb	sy
20000b7a:	4b66      	ldr	r3, [pc, #408]	@ (20000d14 <irq_add_shared_handler+0x1c8>)
20000b7c:	f993 4000 	ldrsb.w	r4, [r3]
20000b80:	2c00      	cmp	r4, #0
20000b82:	f2c0 80a0 	blt.w	20000cc6 <irq_add_shared_handler+0x17a>
20000b86:	4d64      	ldr	r5, [pc, #400]	@ (20000d18 <irq_add_shared_handler+0x1cc>)
20000b88:	eb04 0744 	add.w	r7, r4, r4, lsl #1
20000b8c:	eb05 0887 	add.w	r8, r5, r7, lsl #2
20000b90:	f898 1006 	ldrb.w	r1, [r8, #6]
20000b94:	f109 0910 	add.w	r9, r9, #16
20000b98:	7019      	strb	r1, [r3, #0]
20000b9a:	4b60      	ldr	r3, [pc, #384]	@ (20000d1c <irq_add_shared_handler+0x1d0>)
20000b9c:	00bf      	lsls	r7, r7, #2
20000b9e:	689b      	ldr	r3, [r3, #8]
20000ba0:	f853 0029 	ldr.w	r0, [r3, r9, lsl #2]
20000ba4:	0063      	lsls	r3, r4, #1
20000ba6:	1b41      	subs	r1, r0, r5
20000ba8:	292f      	cmp	r1, #47	@ 0x2f
20000baa:	d92f      	bls.n	20000c0c <irq_add_shared_handler+0xc0>
20000bac:	495c      	ldr	r1, [pc, #368]	@ (20000d20 <irq_add_shared_handler+0x1d4>)
20000bae:	4288      	cmp	r0, r1
20000bb0:	f040 80a4 	bne.w	20000cfc <irq_add_shared_handler+0x1b0>
20000bb4:	441c      	add	r4, r3
20000bb6:	4b5b      	ldr	r3, [pc, #364]	@ (20000d24 <irq_add_shared_handler+0x1d8>)
20000bb8:	3702      	adds	r7, #2
20000bba:	442f      	add	r7, r5
20000bbc:	3b04      	subs	r3, #4
20000bbe:	1bdb      	subs	r3, r3, r7
20000bc0:	f3c3 034a 	ubfx	r3, r3, #1, #11
20000bc4:	ea6f 43c3 	mvn.w	r3, r3, lsl #19
20000bc8:	f44f 4121 	mov.w	r1, #41216	@ 0xa100
20000bcc:	ea6f 43d3 	mvn.w	r3, r3, lsr #19
20000bd0:	f825 1024 	strh.w	r1, [r5, r4, lsl #2]
20000bd4:	eb05 0484 	add.w	r4, r5, r4, lsl #2
20000bd8:	8063      	strh	r3, [r4, #2]
20000bda:	f64b 5301 	movw	r3, #48385	@ 0xbd01
20000bde:	80a3      	strh	r3, [r4, #4]
20000be0:	23ff      	movs	r3, #255	@ 0xff
20000be2:	f048 0001 	orr.w	r0, r8, #1
20000be6:	71e6      	strb	r6, [r4, #7]
20000be8:	f8c4 b008 	str.w	fp, [r4, #8]
20000bec:	71a3      	strb	r3, [r4, #6]
20000bee:	4b4b      	ldr	r3, [pc, #300]	@ (20000d1c <irq_add_shared_handler+0x1d0>)
20000bf0:	689b      	ldr	r3, [r3, #8]
20000bf2:	f843 0029 	str.w	r0, [r3, r9, lsl #2]
20000bf6:	f3bf 8f5f 	dmb	sy
20000bfa:	2300      	movs	r3, #0
20000bfc:	e8ca 3f8f 	stlb	r3, [sl]
20000c00:	9b00      	ldr	r3, [sp, #0]
20000c02:	f383 8810 	msr	PRIMASK, r3
20000c06:	b003      	add	sp, #12
20000c08:	e8bd 8ff0 	ldmia.w	sp!, {r4, r5, r6, r7, r8, r9, sl, fp, pc}
20000c0c:	f020 0e01 	bic.w	lr, r0, #1
20000c10:	f89e 1007 	ldrb.w	r1, [lr, #7]
20000c14:	42b1      	cmp	r1, r6
20000c16:	d82e      	bhi.n	20000c76 <irq_add_shared_handler+0x12a>
20000c18:	f44f 4321 	mov.w	r3, #41216	@ 0xa100
20000c1c:	53eb      	strh	r3, [r5, r7]
20000c1e:	4b41      	ldr	r3, [pc, #260]	@ (20000d24 <irq_add_shared_handler+0x1d8>)
20000c20:	1cb9      	adds	r1, r7, #2
20000c22:	4429      	add	r1, r5
20000c24:	3b04      	subs	r3, #4
20000c26:	3704      	adds	r7, #4
20000c28:	1a5b      	subs	r3, r3, r1
20000c2a:	442f      	add	r7, r5
20000c2c:	f1ae 0104 	sub.w	r1, lr, #4
20000c30:	1bc9      	subs	r1, r1, r7
20000c32:	f3c1 044a 	ubfx	r4, r1, #1, #11
20000c36:	493c      	ldr	r1, [pc, #240]	@ (20000d28 <irq_add_shared_handler+0x1dc>)
20000c38:	f3c3 034a 	ubfx	r3, r3, #1, #11
20000c3c:	430b      	orrs	r3, r1
20000c3e:	4321      	orrs	r1, r4
20000c40:	f8a8 1004 	strh.w	r1, [r8, #4]
20000c44:	4939      	ldr	r1, [pc, #228]	@ (20000d2c <irq_add_shared_handler+0x1e0>)
20000c46:	f8a8 3002 	strh.w	r3, [r8, #2]
20000c4a:	f64a 20aa 	movw	r0, #43690	@ 0xaaaa
20000c4e:	4673      	mov	r3, lr
20000c50:	1b5b      	subs	r3, r3, r5
20000c52:	415b      	adcs	r3, r3
20000c54:	4358      	muls	r0, r3
20000c56:	0d00      	lsrs	r0, r0, #20
20000c58:	f888 6007 	strb.w	r6, [r8, #7]
20000c5c:	f888 0006 	strb.w	r0, [r8, #6]
20000c60:	f8c8 b008 	str.w	fp, [r8, #8]
20000c64:	f048 0001 	orr.w	r0, r8, #1
20000c68:	f8ce 1000 	str.w	r1, [lr]
20000c6c:	e7bf      	b.n	20000bee <irq_add_shared_handler+0xa2>
20000c6e:	79d1      	ldrb	r1, [r2, #7]
20000c70:	42b1      	cmp	r1, r6
20000c72:	d92e      	bls.n	20000cd2 <irq_add_shared_handler+0x186>
20000c74:	4696      	mov	lr, r2
20000c76:	f99e c006 	ldrsb.w	ip, [lr, #6]
20000c7a:	eb0c 024c 	add.w	r2, ip, ip, lsl #1
20000c7e:	f1bc 0f00 	cmp.w	ip, #0
20000c82:	eb05 0282 	add.w	r2, r5, r2, lsl #2
20000c86:	daf2      	bge.n	20000c6e <irq_add_shared_handler+0x122>
20000c88:	f64b 5101 	movw	r1, #48385	@ 0xbd01
20000c8c:	f10e 0204 	add.w	r2, lr, #4
20000c90:	f1a8 0704 	sub.w	r7, r8, #4
20000c94:	1abf      	subs	r7, r7, r2
20000c96:	f3c7 074a 	ubfx	r7, r7, #1, #11
20000c9a:	ea6f 47c7 	mvn.w	r7, r7, lsl #19
20000c9e:	ea6f 47d7 	mvn.w	r7, r7, lsr #19
20000ca2:	f88e 4006 	strb.w	r4, [lr, #6]
20000ca6:	eb03 0804 	add.w	r8, r3, r4
20000caa:	4c20      	ldr	r4, [pc, #128]	@ (20000d2c <irq_add_shared_handler+0x1e0>)
20000cac:	eb05 0388 	add.w	r3, r5, r8, lsl #2
20000cb0:	f8ae 7004 	strh.w	r7, [lr, #4]
20000cb4:	f845 4028 	str.w	r4, [r5, r8, lsl #2]
20000cb8:	8099      	strh	r1, [r3, #4]
20000cba:	f883 c006 	strb.w	ip, [r3, #6]
20000cbe:	71de      	strb	r6, [r3, #7]
20000cc0:	f8c3 b008 	str.w	fp, [r3, #8]
20000cc4:	e793      	b.n	20000bee <irq_add_shared_handler+0xa2>
20000cc6:	f000 feeb 	bl	20001aa0 <hard_assertion_failure>
20000cca:	4b12      	ldr	r3, [pc, #72]	@ (20000d14 <irq_add_shared_handler+0x1c8>)
20000ccc:	f993 4000 	ldrsb.w	r4, [r3]
20000cd0:	e759      	b.n	20000b86 <irq_add_shared_handler+0x3a>
20000cd2:	4672      	mov	r2, lr
20000cd4:	f832 1f04 	ldrh.w	r1, [r2, #4]!
20000cd8:	0549      	lsls	r1, r1, #21
20000cda:	d414      	bmi.n	20000d06 <irq_add_shared_handler+0x1ba>
20000cdc:	1549      	asrs	r1, r1, #21
20000cde:	3102      	adds	r1, #2
20000ce0:	eb02 0141 	add.w	r1, r2, r1, lsl #1
20000ce4:	9101      	str	r1, [sp, #4]
20000ce6:	f06f 0107 	mvn.w	r1, #7
20000cea:	1bc9      	subs	r1, r1, r7
20000cec:	9f01      	ldr	r7, [sp, #4]
20000cee:	1b49      	subs	r1, r1, r5
20000cf0:	4439      	add	r1, r7
20000cf2:	f3c1 014a 	ubfx	r1, r1, #1, #11
20000cf6:	f441 4160 	orr.w	r1, r1, #57344	@ 0xe000
20000cfa:	e7c9      	b.n	20000c90 <irq_add_shared_handler+0x144>
20000cfc:	9301      	str	r3, [sp, #4]
20000cfe:	f000 fecf 	bl	20001aa0 <hard_assertion_failure>
20000d02:	9b01      	ldr	r3, [sp, #4]
20000d04:	e756      	b.n	20000bb4 <irq_add_shared_handler+0x68>
20000d06:	f501 11ff 	add.w	r1, r1, #2088960	@ 0x1fe000
20000d0a:	f501 51ff 	add.w	r1, r1, #8160	@ 0x1fe0
20000d0e:	311f      	adds	r1, #31
20000d10:	e7e4      	b.n	20000cdc <irq_add_shared_handler+0x190>
20000d12:	bf00      	nop
20000d14:	200055ac 	.word	0x200055ac
20000d18:	200052d0 	.word	0x200052d0
20000d1c:	e000ed00 	.word	0xe000ed00
20000d20:	20000111 	.word	0x20000111
20000d24:	20005300 	.word	0x20005300
20000d28:	ffffe000 	.word	0xffffe000
20000d2c:	47804801 	.word	0x47804801
20000d30:	20005529 	.word	0x20005529

20000d34 <irq_remove_handler>:
20000d34:	e92d 4ff0 	stmdb	sp!, {r4, r5, r6, r7, r8, r9, sl, fp, lr}
20000d38:	b083      	sub	sp, #12
20000d3a:	f3ef 8a10 	mrs	sl, PRIMASK
20000d3e:	b672      	cpsid	i
20000d40:	4e71      	ldr	r6, [pc, #452]	@ (20000f08 <irq_remove_handler+0x1d4>)
20000d42:	e8d6 2fcf 	ldaexb	r2, [r6]
20000d46:	2301      	movs	r3, #1
20000d48:	2a00      	cmp	r2, #0
20000d4a:	d1fa      	bne.n	20000d42 <irq_remove_handler+0xe>
20000d4c:	e8c6 3f42 	strexb	r2, r3, [r6]
20000d50:	2a00      	cmp	r2, #0
20000d52:	d1f6      	bne.n	20000d42 <irq_remove_handler+0xe>
20000d54:	f3bf 8f5f 	dmb	sy
20000d58:	4b6c      	ldr	r3, [pc, #432]	@ (20000f0c <irq_remove_handler+0x1d8>)
20000d5a:	f100 0810 	add.w	r8, r0, #16
20000d5e:	689b      	ldr	r3, [r3, #8]
20000d60:	4a6b      	ldr	r2, [pc, #428]	@ (20000f10 <irq_remove_handler+0x1dc>)
20000d62:	f853 5028 	ldr.w	r5, [r3, r8, lsl #2]
20000d66:	4295      	cmp	r5, r2
20000d68:	d045      	beq.n	20000df6 <irq_remove_handler+0xc2>
20000d6a:	428d      	cmp	r5, r1
20000d6c:	460c      	mov	r4, r1
20000d6e:	d050      	beq.n	20000e12 <irq_remove_handler+0xde>
20000d70:	4f68      	ldr	r7, [pc, #416]	@ (20000f14 <irq_remove_handler+0x1e0>)
20000d72:	1beb      	subs	r3, r5, r7
20000d74:	2b2f      	cmp	r3, #47	@ 0x2f
20000d76:	d83e      	bhi.n	20000df6 <irq_remove_handler+0xc2>
20000d78:	2101      	movs	r1, #1
20000d7a:	ea4f 1950 	mov.w	r9, r0, lsr #5
20000d7e:	ea4f 0989 	mov.w	r9, r9, lsl #2
20000d82:	f109 4960 	add.w	r9, r9, #3758096384	@ 0xe0000000
20000d86:	f509 4961 	add.w	r9, r9, #57600	@ 0xe100
20000d8a:	f000 031f 	and.w	r3, r0, #31
20000d8e:	fa01 f003 	lsl.w	r0, r1, r3
20000d92:	f8d9 3000 	ldr.w	r3, [r9]
20000d96:	f8c9 0080 	str.w	r0, [r9, #128]	@ 0x80
20000d9a:	ea00 0b03 	and.w	fp, r0, r3
20000d9e:	f3bf 8f5f 	dmb	sy
20000da2:	f3ef 8105 	mrs	r1, IPSR
20000da6:	b2c9      	uxtb	r1, r1
20000da8:	2900      	cmp	r1, #0
20000daa:	d034      	beq.n	20000e16 <irq_remove_handler+0xe2>
20000dac:	4588      	cmp	r8, r1
20000dae:	d005      	beq.n	20000dbc <irq_remove_handler+0x88>
20000db0:	e9cd 1000 	strd	r1, r0, [sp]
20000db4:	f000 fe74 	bl	20001aa0 <hard_assertion_failure>
20000db8:	e9dd 1000 	ldrd	r1, r0, [sp]
20000dbc:	f025 0e01 	bic.w	lr, r5, #1
20000dc0:	f8de c008 	ldr.w	ip, [lr, #8]
20000dc4:	4564      	cmp	r4, ip
20000dc6:	d105      	bne.n	20000dd4 <irq_remove_handler+0xa0>
20000dc8:	e089      	b.n	20000ede <irq_remove_handler+0x1aa>
20000dca:	f8d3 c008 	ldr.w	ip, [r3, #8]
20000dce:	4564      	cmp	r4, ip
20000dd0:	d031      	beq.n	20000e36 <irq_remove_handler+0x102>
20000dd2:	469e      	mov	lr, r3
20000dd4:	f99e 2006 	ldrsb.w	r2, [lr, #6]
20000dd8:	eb02 0342 	add.w	r3, r2, r2, lsl #1
20000ddc:	2a00      	cmp	r2, #0
20000dde:	eb07 0383 	add.w	r3, r7, r3, lsl #2
20000de2:	daf2      	bge.n	20000dca <irq_remove_handler+0x96>
20000de4:	4564      	cmp	r4, ip
20000de6:	d061      	beq.n	20000eac <irq_remove_handler+0x178>
20000de8:	f1bb 0f00 	cmp.w	fp, #0
20000dec:	d020      	beq.n	20000e30 <irq_remove_handler+0xfc>
20000dee:	f8c9 0180 	str.w	r0, [r9, #384]	@ 0x180
20000df2:	f8c9 0000 	str.w	r0, [r9]
20000df6:	4b45      	ldr	r3, [pc, #276]	@ (20000f0c <irq_remove_handler+0x1d8>)
20000df8:	689b      	ldr	r3, [r3, #8]
20000dfa:	f843 5028 	str.w	r5, [r3, r8, lsl #2]
20000dfe:	f3bf 8f5f 	dmb	sy
20000e02:	2300      	movs	r3, #0
20000e04:	e8c6 3f8f 	stlb	r3, [r6]
20000e08:	f38a 8810 	msr	PRIMASK, sl
20000e0c:	b003      	add	sp, #12
20000e0e:	e8bd 8ff0 	ldmia.w	sp!, {r4, r5, r6, r7, r8, r9, sl, fp, pc}
20000e12:	4615      	mov	r5, r2
20000e14:	e7ef      	b.n	20000df6 <irq_remove_handler+0xc2>
20000e16:	f025 0e01 	bic.w	lr, r5, #1
20000e1a:	f8de c008 	ldr.w	ip, [lr, #8]
20000e1e:	4564      	cmp	r4, ip
20000e20:	d1d8      	bne.n	20000dd4 <irq_remove_handler+0xa0>
20000e22:	f99e 4006 	ldrsb.w	r4, [lr, #6]
20000e26:	4673      	mov	r3, lr
20000e28:	2c00      	cmp	r4, #0
20000e2a:	da08      	bge.n	20000e3e <irq_remove_handler+0x10a>
20000e2c:	4615      	mov	r5, r2
20000e2e:	e046      	b.n	20000ebe <irq_remove_handler+0x18a>
20000e30:	f8c9 0080 	str.w	r0, [r9, #128]	@ 0x80
20000e34:	e7df      	b.n	20000df6 <irq_remove_handler+0xc2>
20000e36:	f993 4006 	ldrsb.w	r4, [r3, #6]
20000e3a:	2c00      	cmp	r4, #0
20000e3c:	db37      	blt.n	20000eae <irq_remove_handler+0x17a>
20000e3e:	eb04 0c44 	add.w	ip, r4, r4, lsl #1
20000e42:	eb07 0c8c 	add.w	ip, r7, ip, lsl #2
20000e46:	f89c 1007 	ldrb.w	r1, [ip, #7]
20000e4a:	f8dc 2008 	ldr.w	r2, [ip, #8]
20000e4e:	71d9      	strb	r1, [r3, #7]
20000e50:	609a      	str	r2, [r3, #8]
20000e52:	f99c 2006 	ldrsb.w	r2, [ip, #6]
20000e56:	0061      	lsls	r1, r4, #1
20000e58:	2a00      	cmp	r2, #0
20000e5a:	719a      	strb	r2, [r3, #6]
20000e5c:	db3d      	blt.n	20000eda <irq_remove_handler+0x1a6>
20000e5e:	f8bc e004 	ldrh.w	lr, [ip, #4]
20000e62:	ea5f 5e4e 	movs.w	lr, lr, lsl #21
20000e66:	d505      	bpl.n	20000e74 <irq_remove_handler+0x140>
20000e68:	f50e 1eff 	add.w	lr, lr, #2088960	@ 0x1fe000
20000e6c:	f50e 5eff 	add.w	lr, lr, #8160	@ 0x1fe0
20000e70:	f10e 0e1f 	add.w	lr, lr, #31
20000e74:	f06f 0c07 	mvn.w	ip, #7
20000e78:	190a      	adds	r2, r1, r4
20000e7a:	ea4f 5e6e 	mov.w	lr, lr, asr #21
20000e7e:	0092      	lsls	r2, r2, #2
20000e80:	eb02 024e 	add.w	r2, r2, lr, lsl #1
20000e84:	3208      	adds	r2, #8
20000e86:	443a      	add	r2, r7
20000e88:	ebac 0c03 	sub.w	ip, ip, r3
20000e8c:	4462      	add	r2, ip
20000e8e:	f3c2 024a 	ubfx	r2, r2, #1, #11
20000e92:	ea6f 42c2 	mvn.w	r2, r2, lsl #19
20000e96:	ea6f 42d2 	mvn.w	r2, r2, lsr #19
20000e9a:	809a      	strh	r2, [r3, #4]
20000e9c:	4b1e      	ldr	r3, [pc, #120]	@ (20000f18 <irq_remove_handler+0x1e4>)
20000e9e:	4421      	add	r1, r4
20000ea0:	781a      	ldrb	r2, [r3, #0]
20000ea2:	eb07 0181 	add.w	r1, r7, r1, lsl #2
20000ea6:	701c      	strb	r4, [r3, #0]
20000ea8:	718a      	strb	r2, [r1, #6]
20000eaa:	e79d      	b.n	20000de8 <irq_remove_handler+0xb4>
20000eac:	4673      	mov	r3, lr
20000eae:	b9d9      	cbnz	r1, 20000ee8 <irq_remove_handler+0x1b4>
20000eb0:	22ff      	movs	r2, #255	@ 0xff
20000eb2:	f88e 2006 	strb.w	r2, [lr, #6]
20000eb6:	f64b 5201 	movw	r2, #48385	@ 0xbd01
20000eba:	f8ae 2004 	strh.w	r2, [lr, #4]
20000ebe:	4c16      	ldr	r4, [pc, #88]	@ (20000f18 <irq_remove_handler+0x1e4>)
20000ec0:	f64a 22aa 	movw	r2, #43690	@ 0xaaaa
20000ec4:	f894 c000 	ldrb.w	ip, [r4]
20000ec8:	4619      	mov	r1, r3
20000eca:	1bc9      	subs	r1, r1, r7
20000ecc:	4149      	adcs	r1, r1
20000ece:	434a      	muls	r2, r1
20000ed0:	0d12      	lsrs	r2, r2, #20
20000ed2:	f883 c006 	strb.w	ip, [r3, #6]
20000ed6:	7022      	strb	r2, [r4, #0]
20000ed8:	e786      	b.n	20000de8 <irq_remove_handler+0xb4>
20000eda:	4a10      	ldr	r2, [pc, #64]	@ (20000f1c <irq_remove_handler+0x1e8>)
20000edc:	e7dd      	b.n	20000e9a <irq_remove_handler+0x166>
20000ede:	f99e 4006 	ldrsb.w	r4, [lr, #6]
20000ee2:	4673      	mov	r3, lr
20000ee4:	2c00      	cmp	r4, #0
20000ee6:	daaa      	bge.n	20000e3e <irq_remove_handler+0x10a>
20000ee8:	4a0d      	ldr	r2, [pc, #52]	@ (20000f20 <irq_remove_handler+0x1ec>)
20000eea:	4c0e      	ldr	r4, [pc, #56]	@ (20000f24 <irq_remove_handler+0x1f0>)
20000eec:	1ad2      	subs	r2, r2, r3
20000eee:	3a08      	subs	r2, #8
20000ef0:	f3c2 310a 	ubfx	r1, r2, #12, #11
20000ef4:	ea6f 5101 	mvn.w	r1, r1, lsl #20
20000ef8:	ea6f 5111 	mvn.w	r1, r1, lsr #20
20000efc:	ea44 0252 	orr.w	r2, r4, r2, lsr #1
20000f00:	80da      	strh	r2, [r3, #6]
20000f02:	8099      	strh	r1, [r3, #4]
20000f04:	e770      	b.n	20000de8 <irq_remove_handler+0xb4>
20000f06:	bf00      	nop
20000f08:	20005529 	.word	0x20005529
20000f0c:	e000ed00 	.word	0xe000ed00
20000f10:	20000111 	.word	0x20000111
20000f14:	200052d0 	.word	0x200052d0
20000f18:	200055ac 	.word	0x200055ac
20000f1c:	ffffbd01 	.word	0xffffbd01
20000f20:	2000530a 	.word	0x2000530a
20000f24:	fffff800 	.word	0xfffff800

20000f28 <irq_add_tail_to_free_list>:
20000f28:	b5f0      	push	{r4, r5, r6, r7, lr}
20000f2a:	f3ef 8505 	mrs	r5, IPSR
20000f2e:	b2ed      	uxtb	r5, r5
20000f30:	f3ef 8c10 	mrs	ip, PRIMASK
20000f34:	b672      	cpsid	i
20000f36:	4926      	ldr	r1, [pc, #152]	@ (20000fd0 <irq_add_tail_to_free_list+0xa8>)
20000f38:	e8d1 2fcf 	ldaexb	r2, [r1]
20000f3c:	2301      	movs	r3, #1
20000f3e:	2a00      	cmp	r2, #0
20000f40:	d1fa      	bne.n	20000f38 <irq_add_tail_to_free_list+0x10>
20000f42:	e8c1 3f42 	strexb	r2, r3, [r1]
20000f46:	2a00      	cmp	r2, #0
20000f48:	d1f6      	bne.n	20000f38 <irq_add_tail_to_free_list+0x10>
20000f4a:	f3bf 8f5f 	dmb	sy
20000f4e:	4e21      	ldr	r6, [pc, #132]	@ (20000fd4 <irq_add_tail_to_free_list+0xac>)
20000f50:	f040 0e01 	orr.w	lr, r0, #1
20000f54:	68b4      	ldr	r4, [r6, #8]
20000f56:	f64a 23aa 	movw	r3, #43690	@ 0xaaaa
20000f5a:	f854 7025 	ldr.w	r7, [r4, r5, lsl #2]
20000f5e:	4a1e      	ldr	r2, [pc, #120]	@ (20000fd8 <irq_add_tail_to_free_list+0xb0>)
20000f60:	4604      	mov	r4, r0
20000f62:	1aa4      	subs	r4, r4, r2
20000f64:	4164      	adcs	r4, r4
20000f66:	4363      	muls	r3, r4
20000f68:	0d1b      	lsrs	r3, r3, #20
20000f6a:	4577      	cmp	r7, lr
20000f6c:	b25b      	sxtb	r3, r3
20000f6e:	d01b      	beq.n	20000fa8 <irq_add_tail_to_free_list+0x80>
20000f70:	f992 4006 	ldrsb.w	r4, [r2, #6]
20000f74:	429c      	cmp	r4, r3
20000f76:	d01c      	beq.n	20000fb2 <irq_add_tail_to_free_list+0x8a>
20000f78:	f992 4012 	ldrsb.w	r4, [r2, #18]
20000f7c:	429c      	cmp	r4, r3
20000f7e:	d023      	beq.n	20000fc8 <irq_add_tail_to_free_list+0xa0>
20000f80:	f992 401e 	ldrsb.w	r4, [r2, #30]
20000f84:	429c      	cmp	r4, r3
20000f86:	d021      	beq.n	20000fcc <irq_add_tail_to_free_list+0xa4>
20000f88:	f992 402a 	ldrsb.w	r4, [r2, #42]	@ 0x2a
20000f8c:	429c      	cmp	r4, r3
20000f8e:	bf08      	it	eq
20000f90:	2403      	moveq	r4, #3
20000f92:	d00f      	beq.n	20000fb4 <irq_add_tail_to_free_list+0x8c>
20000f94:	4a11      	ldr	r2, [pc, #68]	@ (20000fdc <irq_add_tail_to_free_list+0xb4>)
20000f96:	2400      	movs	r4, #0
20000f98:	7815      	ldrb	r5, [r2, #0]
20000f9a:	7013      	strb	r3, [r2, #0]
20000f9c:	7185      	strb	r5, [r0, #6]
20000f9e:	e8c1 4f8f 	stlb	r4, [r1]
20000fa2:	f38c 8810 	msr	PRIMASK, ip
20000fa6:	bdf0      	pop	{r4, r5, r6, r7, pc}
20000fa8:	68b2      	ldr	r2, [r6, #8]
20000faa:	4c0d      	ldr	r4, [pc, #52]	@ (20000fe0 <irq_add_tail_to_free_list+0xb8>)
20000fac:	f842 4025 	str.w	r4, [r2, r5, lsl #2]
20000fb0:	e7f0      	b.n	20000f94 <irq_add_tail_to_free_list+0x6c>
20000fb2:	2400      	movs	r4, #0
20000fb4:	eb04 0444 	add.w	r4, r4, r4, lsl #1
20000fb8:	eb02 0284 	add.w	r2, r2, r4, lsl #2
20000fbc:	24ff      	movs	r4, #255	@ 0xff
20000fbe:	7194      	strb	r4, [r2, #6]
20000fc0:	f64b 5401 	movw	r4, #48385	@ 0xbd01
20000fc4:	8094      	strh	r4, [r2, #4]
20000fc6:	e7e5      	b.n	20000f94 <irq_add_tail_to_free_list+0x6c>
20000fc8:	2401      	movs	r4, #1
20000fca:	e7f3      	b.n	20000fb4 <irq_add_tail_to_free_list+0x8c>
20000fcc:	2402      	movs	r4, #2
20000fce:	e7f1      	b.n	20000fb4 <irq_add_tail_to_free_list+0x8c>
20000fd0:	20005529 	.word	0x20005529
20000fd4:	e000ed00 	.word	0xe000ed00
20000fd8:	200052d0 	.word	0x200052d0
20000fdc:	200055ac 	.word	0x200055ac
20000fe0:	20000111 	.word	0x20000111

20000fe4 <lock_init>:
20000fe4:	4b01      	ldr	r3, [pc, #4]	@ (20000fec <lock_init+0x8>)
20000fe6:	440b      	add	r3, r1
20000fe8:	6003      	str	r3, [r0, #0]
20000fea:	4770      	bx	lr
20000fec:	20005520 	.word	0x20005520

20000ff0 <runtime_init_mutex>:
20000ff0:	b570      	push	{r4, r5, r6, lr}
20000ff2:	4c10      	ldr	r4, [pc, #64]	@ (20001034 <runtime_init_mutex+0x44>)
20000ff4:	4d10      	ldr	r5, [pc, #64]	@ (20001038 <runtime_init_mutex+0x48>)
20000ff6:	42ac      	cmp	r4, r5
20000ff8:	d20e      	bcs.n	20001018 <runtime_init_mutex+0x28>
20000ffa:	26ff      	movs	r6, #255	@ 0xff
20000ffc:	6823      	ldr	r3, [r4, #0]
20000ffe:	b163      	cbz	r3, 2000101a <runtime_init_mutex+0x2a>
20001000:	f7ff fd1e 	bl	20000a40 <next_striped_spin_lock_num>
20001004:	4601      	mov	r1, r0
20001006:	4620      	mov	r0, r4
20001008:	f7ff ffec 	bl	20000fe4 <lock_init>
2000100c:	80a6      	strh	r6, [r4, #4]
2000100e:	f3bf 8f5f 	dmb	sy
20001012:	3408      	adds	r4, #8
20001014:	42ac      	cmp	r4, r5
20001016:	d3f1      	bcc.n	20000ffc <runtime_init_mutex+0xc>
20001018:	bd70      	pop	{r4, r5, r6, pc}
2000101a:	f7ff fd11 	bl	20000a40 <next_striped_spin_lock_num>
2000101e:	4601      	mov	r1, r0
20001020:	4620      	mov	r0, r4
20001022:	f7ff ffdf 	bl	20000fe4 <lock_init>
20001026:	7126      	strb	r6, [r4, #4]
20001028:	f3bf 8f5f 	dmb	sy
2000102c:	3408      	adds	r4, #8
2000102e:	42ac      	cmp	r4, r5
20001030:	d3e4      	bcc.n	20000ffc <runtime_init_mutex+0xc>
20001032:	bd70      	pop	{r4, r5, r6, pc}
20001034:	20005350 	.word	0x20005350
20001038:	20005358 	.word	0x20005358

2000103c <sleep_until_callback>:
2000103c:	4b0d      	ldr	r3, [pc, #52]	@ (20001074 <sleep_until_callback+0x38>)
2000103e:	681a      	ldr	r2, [r3, #0]
20001040:	f3ef 8110 	mrs	r1, PRIMASK
20001044:	b672      	cpsid	i
20001046:	e8d2 cfcf 	ldaexb	ip, [r2]
2000104a:	2001      	movs	r0, #1
2000104c:	f1bc 0f00 	cmp.w	ip, #0
20001050:	d1f9      	bne.n	20001046 <sleep_until_callback+0xa>
20001052:	e8c2 0f4c 	strexb	ip, r0, [r2]
20001056:	f1bc 0f00 	cmp.w	ip, #0
2000105a:	d1f4      	bne.n	20001046 <sleep_until_callback+0xa>
2000105c:	f3bf 8f5f 	dmb	sy
20001060:	2200      	movs	r2, #0
20001062:	681b      	ldr	r3, [r3, #0]
20001064:	e8c3 2f8f 	stlb	r2, [r3]
20001068:	f381 8810 	msr	PRIMASK, r1
2000106c:	bf40      	sev
2000106e:	2000      	movs	r0, #0
20001070:	2100      	movs	r1, #0
20001072:	4770      	bx	lr
20001074:	200055a8 	.word	0x200055a8

20001078 <alarm_pool_irq_handler>:
20001078:	e92d 4ff0 	stmdb	sp!, {r4, r5, r6, r7, r8, r9, sl, fp, lr}
2000107c:	ed2d 8b02 	vpush	{d8}
20001080:	b085      	sub	sp, #20
20001082:	f3ef 8305 	mrs	r3, IPSR
20001086:	b2db      	uxtb	r3, r3
20001088:	3b10      	subs	r3, #16
2000108a:	089a      	lsrs	r2, r3, #2
2000108c:	bf18      	it	ne
2000108e:	2201      	movne	r2, #1
20001090:	f04f 0101 	mov.w	r1, #1
20001094:	f003 0b03 	and.w	fp, r3, #3
20001098:	bf18      	it	ne
2000109a:	4daf      	ldrne	r5, [pc, #700]	@ (20001358 <alarm_pool_irq_handler+0x2e0>)
2000109c:	4baf      	ldr	r3, [pc, #700]	@ (2000135c <alarm_pool_irq_handler+0x2e4>)
2000109e:	bf08      	it	eq
200010a0:	4daf      	ldreq	r5, [pc, #700]	@ (20001360 <alarm_pool_irq_handler+0x2e8>)
200010a2:	eb0b 0282 	add.w	r2, fp, r2, lsl #2
200010a6:	f853 6022 	ldr.w	r6, [r3, r2, lsl #2]
200010aa:	fa01 f20b 	lsl.w	r2, r1, fp
200010ae:	f505 5341 	add.w	r3, r5, #12352	@ 0x3040
200010b2:	ed9f 8ba7 	vldr	d8, [pc, #668]	@ 20001350 <alarm_pool_irq_handler+0x2d8>
200010b6:	9201      	str	r2, [sp, #4]
200010b8:	605a      	str	r2, [r3, #4]
200010ba:	e02f      	b.n	2000111c <alarm_pool_irq_handler+0xa4>
200010bc:	88b3      	ldrh	r3, [r6, #4]
200010be:	041c      	lsls	r4, r3, #16
200010c0:	f140 8093 	bpl.w	200011ea <alarm_pool_irq_handler+0x172>
200010c4:	79b3      	ldrb	r3, [r6, #6]
200010c6:	2b00      	cmp	r3, #0
200010c8:	f040 80dd 	bne.w	20001286 <alarm_pool_irq_handler+0x20e>
200010cc:	f9b6 2008 	ldrsh.w	r2, [r6, #8]
200010d0:	2a00      	cmp	r2, #0
200010d2:	f2c0 811e 	blt.w	20001312 <alarm_pool_irq_handler+0x29a>
200010d6:	6973      	ldr	r3, [r6, #20]
200010d8:	eb02 0242 	add.w	r2, r2, r2, lsl #1
200010dc:	eb03 03c2 	add.w	r3, r3, r2, lsl #3
200010e0:	e9d3 4702 	ldrd	r4, r7, [r3, #8]
200010e4:	f1b7 3fff 	cmp.w	r7, #4294967295
200010e8:	bf08      	it	eq
200010ea:	f1b4 3fff 	cmpeq.w	r4, #4294967295
200010ee:	d00e      	beq.n	2000110e <alarm_pool_irq_handler+0x96>
200010f0:	eb05 018b 	add.w	r1, r5, fp, lsl #2
200010f4:	6aab      	ldr	r3, [r5, #40]	@ 0x28
200010f6:	690a      	ldr	r2, [r1, #16]
200010f8:	1ad2      	subs	r2, r2, r3
200010fa:	1ae3      	subs	r3, r4, r3
200010fc:	4293      	cmp	r3, r2
200010fe:	d305      	bcc.n	2000110c <alarm_pool_irq_handler+0x94>
20001100:	2301      	movs	r3, #1
20001102:	6a2a      	ldr	r2, [r5, #32]
20001104:	fa03 f30b 	lsl.w	r3, r3, fp
20001108:	4213      	tst	r3, r2
2000110a:	d100      	bne.n	2000110e <alarm_pool_irq_handler+0x96>
2000110c:	610c      	str	r4, [r1, #16]
2000110e:	4628      	mov	r0, r5
20001110:	f000 fba4 	bl	2000185c <timer_time_us_64>
20001114:	42a0      	cmp	r0, r4
20001116:	41b9      	sbcs	r1, r7
20001118:	f2c0 80fb 	blt.w	20001312 <alarm_pool_irq_handler+0x29a>
2000111c:	f9b6 3008 	ldrsh.w	r3, [r6, #8]
20001120:	9a01      	ldr	r2, [sp, #4]
20001122:	2b00      	cmp	r3, #0
20001124:	9300      	str	r3, [sp, #0]
20001126:	63ea      	str	r2, [r5, #60]	@ 0x3c
20001128:	dbc8      	blt.n	200010bc <alarm_pool_irq_handler+0x44>
2000112a:	f8d6 8014 	ldr.w	r8, [r6, #20]
2000112e:	eb03 0943 	add.w	r9, r3, r3, lsl #1
20001132:	4628      	mov	r0, r5
20001134:	eb08 07c9 	add.w	r7, r8, r9, lsl #3
20001138:	e9d7 4a02 	ldrd	r4, sl, [r7, #8]
2000113c:	f000 fb8e 	bl	2000185c <timer_time_us_64>
20001140:	42a0      	cmp	r0, r4
20001142:	eb71 010a 	sbcs.w	r1, r1, sl
20001146:	dbb9      	blt.n	200010bc <alarm_pool_irq_handler+0x44>
20001148:	f1ba 0f00 	cmp.w	sl, #0
2000114c:	f2c0 80c3 	blt.w	200012d6 <alarm_pool_irq_handler+0x25e>
20001150:	e9d7 3104 	ldrd	r3, r1, [r7, #16]
20001154:	4a83      	ldr	r2, [pc, #524]	@ (20001364 <alarm_pool_irq_handler+0x2ec>)
20001156:	4293      	cmp	r3, r2
20001158:	f000 80ed 	beq.w	20001336 <alarm_pool_irq_handler+0x2be>
2000115c:	887a      	ldrh	r2, [r7, #2]
2000115e:	f9b6 0008 	ldrsh.w	r0, [r6, #8]
20001162:	b292      	uxth	r2, r2
20001164:	ea42 4000 	orr.w	r0, r2, r0, lsl #16
20001168:	4798      	blx	r3
2000116a:	4602      	mov	r2, r0
2000116c:	460b      	mov	r3, r1
2000116e:	ea52 0103 	orrs.w	r1, r2, r3
20001172:	f000 80b0 	beq.w	200012d6 <alarm_pool_irq_handler+0x25e>
20001176:	2b00      	cmp	r3, #0
20001178:	f280 80d1 	bge.w	2000131e <alarm_pool_irq_handler+0x2a6>
2000117c:	ebb4 0e02 	subs.w	lr, r4, r2
20001180:	eb6a 0a03 	sbc.w	sl, sl, r3
20001184:	f938 3039 	ldrsh.w	r3, [r8, r9, lsl #3]
20001188:	e9c7 ea02 	strd	lr, sl, [r7, #8]
2000118c:	2b00      	cmp	r3, #0
2000118e:	db95      	blt.n	200010bc <alarm_pool_irq_handler+0x44>
20001190:	6971      	ldr	r1, [r6, #20]
20001192:	eb03 0243 	add.w	r2, r3, r3, lsl #1
20001196:	eb01 02c2 	add.w	r2, r1, r2, lsl #3
2000119a:	e9d2 7002 	ldrd	r7, r0, [r2, #8]
2000119e:	45be      	cmp	lr, r7
200011a0:	eb7a 0c00 	sbcs.w	ip, sl, r0
200011a4:	ea4f 0243 	mov.w	r2, r3, lsl #1
200011a8:	db88      	blt.n	200010bc <alarm_pool_irq_handler+0x44>
200011aa:	46b4      	mov	ip, r6
200011ac:	f82c 3f08 	strh.w	r3, [ip, #8]!
200011b0:	e006      	b.n	200011c0 <alarm_pool_irq_handler+0x148>
200011b2:	eb03 0043 	add.w	r0, r3, r3, lsl #1
200011b6:	eb01 00c0 	add.w	r0, r1, r0, lsl #3
200011ba:	005a      	lsls	r2, r3, #1
200011bc:	e9d0 7002 	ldrd	r7, r0, [r0, #8]
200011c0:	45be      	cmp	lr, r7
200011c2:	441a      	add	r2, r3
200011c4:	eb7a 0000 	sbcs.w	r0, sl, r0
200011c8:	eb01 04c2 	add.w	r4, r1, r2, lsl #3
200011cc:	db04      	blt.n	200011d8 <alarm_pool_irq_handler+0x160>
200011ce:	f931 3032 	ldrsh.w	r3, [r1, r2, lsl #3]
200011d2:	46a4      	mov	ip, r4
200011d4:	2b00      	cmp	r3, #0
200011d6:	daec      	bge.n	200011b2 <alarm_pool_irq_handler+0x13a>
200011d8:	f828 3039 	strh.w	r3, [r8, r9, lsl #3]
200011dc:	9b00      	ldr	r3, [sp, #0]
200011de:	f8ac 3000 	strh.w	r3, [ip]
200011e2:	88b3      	ldrh	r3, [r6, #4]
200011e4:	041c      	lsls	r4, r3, #16
200011e6:	f53f af6d 	bmi.w	200010c4 <alarm_pool_irq_handler+0x4c>
200011ea:	6933      	ldr	r3, [r6, #16]
200011ec:	f3ef 8210 	mrs	r2, PRIMASK
200011f0:	b672      	cpsid	i
200011f2:	e8d3 0fcf 	ldaexb	r0, [r3]
200011f6:	2101      	movs	r1, #1
200011f8:	2800      	cmp	r0, #0
200011fa:	d1fa      	bne.n	200011f2 <alarm_pool_irq_handler+0x17a>
200011fc:	e8c3 1f40 	strexb	r0, r1, [r3]
20001200:	2800      	cmp	r0, #0
20001202:	d1f6      	bne.n	200011f2 <alarm_pool_irq_handler+0x17a>
20001204:	f3bf 8f5f 	dmb	sy
20001208:	f64f 74ff 	movw	r4, #65535	@ 0xffff
2000120c:	88b0      	ldrh	r0, [r6, #4]
2000120e:	2300      	movs	r3, #0
20001210:	6931      	ldr	r1, [r6, #16]
20001212:	b200      	sxth	r0, r0
20001214:	80b4      	strh	r4, [r6, #4]
20001216:	e8c1 3f8f 	stlb	r3, [r1]
2000121a:	f382 8810 	msr	PRIMASK, r2
2000121e:	4298      	cmp	r0, r3
20001220:	f6ff af50 	blt.w	200010c4 <alarm_pool_irq_handler+0x4c>
20001224:	4607      	mov	r7, r0
20001226:	46a9      	mov	r9, r5
20001228:	6974      	ldr	r4, [r6, #20]
2000122a:	f106 0808 	add.w	r8, r6, #8
2000122e:	eb07 0e47 	add.w	lr, r7, r7, lsl #1
20001232:	eb04 03ce 	add.w	r3, r4, lr, lsl #3
20001236:	e9d3 5002 	ldrd	r5, r0, [r3, #8]
2000123a:	f9b6 3008 	ldrsh.w	r3, [r6, #8]
2000123e:	46c4      	mov	ip, r8
20001240:	2b00      	cmp	r3, #0
20001242:	db13      	blt.n	2000126c <alarm_pool_irq_handler+0x1f4>
20001244:	46b2      	mov	sl, r6
20001246:	9700      	str	r7, [sp, #0]
20001248:	e004      	b.n	20001254 <alarm_pool_irq_handler+0x1dc>
2000124a:	f934 3036 	ldrsh.w	r3, [r4, r6, lsl #3]
2000124e:	4694      	mov	ip, r2
20001250:	2b00      	cmp	r3, #0
20001252:	db09      	blt.n	20001268 <alarm_pool_irq_handler+0x1f0>
20001254:	eb03 0643 	add.w	r6, r3, r3, lsl #1
20001258:	eb04 02c6 	add.w	r2, r4, r6, lsl #3
2000125c:	e9d2 7102 	ldrd	r7, r1, [r2, #8]
20001260:	42bd      	cmp	r5, r7
20001262:	eb70 0101 	sbcs.w	r1, r0, r1
20001266:	daf0      	bge.n	2000124a <alarm_pool_irq_handler+0x1d2>
20001268:	4656      	mov	r6, sl
2000126a:	9f00      	ldr	r7, [sp, #0]
2000126c:	f8ac 7000 	strh.w	r7, [ip]
20001270:	f934 703e 	ldrsh.w	r7, [r4, lr, lsl #3]
20001274:	f824 303e 	strh.w	r3, [r4, lr, lsl #3]
20001278:	2f00      	cmp	r7, #0
2000127a:	dad8      	bge.n	2000122e <alarm_pool_irq_handler+0x1b6>
2000127c:	79b3      	ldrb	r3, [r6, #6]
2000127e:	464d      	mov	r5, r9
20001280:	2b00      	cmp	r3, #0
20001282:	f43f af23 	beq.w	200010cc <alarm_pool_irq_handler+0x54>
20001286:	2300      	movs	r3, #0
20001288:	71b3      	strb	r3, [r6, #6]
2000128a:	f9b6 3008 	ldrsh.w	r3, [r6, #8]
2000128e:	f106 0808 	add.w	r8, r6, #8
20001292:	1c58      	adds	r0, r3, #1
20001294:	d03d      	beq.n	20001312 <alarm_pool_irq_handler+0x29a>
20001296:	461a      	mov	r2, r3
20001298:	6977      	ldr	r7, [r6, #20]
2000129a:	e003      	b.n	200012a4 <alarm_pool_irq_handler+0x22c>
2000129c:	4680      	mov	r8, r0
2000129e:	1c59      	adds	r1, r3, #1
200012a0:	f43f af16 	beq.w	200010d0 <alarm_pool_irq_handler+0x58>
200012a4:	eb03 0143 	add.w	r1, r3, r3, lsl #1
200012a8:	eb07 00c1 	add.w	r0, r7, r1, lsl #3
200012ac:	f8b0 c002 	ldrh.w	ip, [r0, #2]
200012b0:	461c      	mov	r4, r3
200012b2:	f41c 4f00 	tst.w	ip, #32768	@ 0x8000
200012b6:	469e      	mov	lr, r3
200012b8:	f937 3031 	ldrsh.w	r3, [r7, r1, lsl #3]
200012bc:	d0ee      	beq.n	2000129c <alarm_pool_irq_handler+0x224>
200012be:	4294      	cmp	r4, r2
200012c0:	ed80 8b02 	vstr	d8, [r0, #8]
200012c4:	d005      	beq.n	200012d2 <alarm_pool_irq_handler+0x25a>
200012c6:	f8a8 3000 	strh.w	r3, [r8]
200012ca:	8932      	ldrh	r2, [r6, #8]
200012cc:	f827 2031 	strh.w	r2, [r7, r1, lsl #3]
200012d0:	8134      	strh	r4, [r6, #8]
200012d2:	4672      	mov	r2, lr
200012d4:	e7e3      	b.n	2000129e <alarm_pool_irq_handler+0x226>
200012d6:	f838 3039 	ldrh.w	r3, [r8, r9, lsl #3]
200012da:	8133      	strh	r3, [r6, #8]
200012dc:	6933      	ldr	r3, [r6, #16]
200012de:	f3ef 8210 	mrs	r2, PRIMASK
200012e2:	b672      	cpsid	i
200012e4:	e8d3 0fcf 	ldaexb	r0, [r3]
200012e8:	2101      	movs	r1, #1
200012ea:	2800      	cmp	r0, #0
200012ec:	d1fa      	bne.n	200012e4 <alarm_pool_irq_handler+0x26c>
200012ee:	e8c3 1f40 	strexb	r0, r1, [r3]
200012f2:	2800      	cmp	r0, #0
200012f4:	d1f6      	bne.n	200012e4 <alarm_pool_irq_handler+0x26c>
200012f6:	f3bf 8f5f 	dmb	sy
200012fa:	8873      	ldrh	r3, [r6, #2]
200012fc:	6931      	ldr	r1, [r6, #16]
200012fe:	f828 3039 	strh.w	r3, [r8, r9, lsl #3]
20001302:	9b00      	ldr	r3, [sp, #0]
20001304:	8073      	strh	r3, [r6, #2]
20001306:	2300      	movs	r3, #0
20001308:	e8c1 3f8f 	stlb	r3, [r1]
2000130c:	f382 8810 	msr	PRIMASK, r2
20001310:	e6d4      	b.n	200010bc <alarm_pool_irq_handler+0x44>
20001312:	bf40      	sev
20001314:	b005      	add	sp, #20
20001316:	ecbd 8b02 	vpop	{d8}
2000131a:	e8bd 8ff0 	ldmia.w	sp!, {r4, r5, r6, r7, r8, r9, sl, fp, pc}
2000131e:	4628      	mov	r0, r5
20001320:	e9cd 2302 	strd	r2, r3, [sp, #8]
20001324:	f000 fa9a 	bl	2000185c <timer_time_us_64>
20001328:	9a02      	ldr	r2, [sp, #8]
2000132a:	9b03      	ldr	r3, [sp, #12]
2000132c:	eb10 0e02 	adds.w	lr, r0, r2
20001330:	eb43 0a01 	adc.w	sl, r3, r1
20001334:	e726      	b.n	20001184 <alarm_pool_irq_handler+0x10c>
20001336:	4608      	mov	r0, r1
20001338:	690b      	ldr	r3, [r1, #16]
2000133a:	9102      	str	r1, [sp, #8]
2000133c:	4798      	blx	r3
2000133e:	2800      	cmp	r0, #0
20001340:	d0c9      	beq.n	200012d6 <alarm_pool_irq_handler+0x25e>
20001342:	9902      	ldr	r1, [sp, #8]
20001344:	e9d1 2300 	ldrd	r2, r3, [r1]
20001348:	e711      	b.n	2000116e <alarm_pool_irq_handler+0xf6>
2000134a:	bf00      	nop
2000134c:	f3af 8000 	nop.w
20001350:	ffffffff 	.word	0xffffffff
20001354:	ffffffff 	.word	0xffffffff
20001358:	400b8000 	.word	0x400b8000
2000135c:	20005580 	.word	0x20005580
20001360:	400b0000 	.word	0x400b0000
20001364:	20001079 	.word	0x20001079

20001368 <runtime_init_default_alarm_pool>:
20001368:	e92d 4ff8 	stmdb	sp!, {r3, r4, r5, r6, r7, r8, r9, sl, fp, lr}
2000136c:	4c36      	ldr	r4, [pc, #216]	@ (20001448 <runtime_init_default_alarm_pool+0xe0>)
2000136e:	6925      	ldr	r5, [r4, #16]
20001370:	b12d      	cbz	r5, 2000137e <runtime_init_default_alarm_pool+0x16>
20001372:	e8bd 4ff8 	ldmia.w	sp!, {r3, r4, r5, r6, r7, r8, r9, sl, fp, lr}
20001376:	210a      	movs	r1, #10
20001378:	4834      	ldr	r0, [pc, #208]	@ (2000144c <runtime_init_default_alarm_pool+0xe4>)
2000137a:	f7ff be33 	b.w	20000fe4 <lock_init>
2000137e:	f8df 80e4 	ldr.w	r8, [pc, #228]	@ 20001464 <runtime_init_default_alarm_pool+0xfc>
20001382:	2103      	movs	r1, #3
20001384:	4640      	mov	r0, r8
20001386:	f000 fa57 	bl	20001838 <timer_hardware_alarm_claim>
2000138a:	2603      	movs	r6, #3
2000138c:	f8c4 800c 	str.w	r8, [r4, #12]
20001390:	f7ff fb56 	bl	20000a40 <next_striped_spin_lock_num>
20001394:	f04f 4c50 	mov.w	ip, #3489660928	@ 0xd0000000
20001398:	4b2d      	ldr	r3, [pc, #180]	@ (20001450 <runtime_init_default_alarm_pool+0xe8>)
2000139a:	7026      	strb	r6, [r4, #0]
2000139c:	4403      	add	r3, r0
2000139e:	6123      	str	r3, [r4, #16]
200013a0:	f8dc 3000 	ldr.w	r3, [ip]
200013a4:	210f      	movs	r1, #15
200013a6:	7063      	strb	r3, [r4, #1]
200013a8:	6963      	ldr	r3, [r4, #20]
200013aa:	8061      	strh	r1, [r4, #2]
200013ac:	831d      	strh	r5, [r3, #24]
200013ae:	f04f 0504 	mov.w	r5, #4
200013b2:	f8a3 5078 	strh.w	r5, [r3, #120]	@ 0x78
200013b6:	f04f 0505 	mov.w	r5, #5
200013ba:	f8a3 5090 	strh.w	r5, [r3, #144]	@ 0x90
200013be:	f04f 0506 	mov.w	r5, #6
200013c2:	f8a3 50a8 	strh.w	r5, [r3, #168]	@ 0xa8
200013c6:	f04f 0507 	mov.w	r5, #7
200013ca:	210e      	movs	r1, #14
200013cc:	f64f 72ff 	movw	r2, #65535	@ 0xffff
200013d0:	2708      	movs	r7, #8
200013d2:	f04f 0e0a 	mov.w	lr, #10
200013d6:	f8a3 50c0 	strh.w	r5, [r3, #192]	@ 0xc0
200013da:	f04f 0901 	mov.w	r9, #1
200013de:	f04f 0c0c 	mov.w	ip, #12
200013e2:	f04f 0b02 	mov.w	fp, #2
200013e6:	f04f 0a09 	mov.w	sl, #9
200013ea:	200d      	movs	r0, #13
200013ec:	f04f 050b 	mov.w	r5, #11
200013f0:	f8a3 1168 	strh.w	r1, [r3, #360]	@ 0x168
200013f4:	4917      	ldr	r1, [pc, #92]	@ (20001454 <runtime_init_default_alarm_pool+0xec>)
200013f6:	80a2      	strh	r2, [r4, #4]
200013f8:	f8a3 e108 	strh.w	lr, [r3, #264]	@ 0x108
200013fc:	60a1      	str	r1, [r4, #8]
200013fe:	f8a3 b048 	strh.w	fp, [r3, #72]	@ 0x48
20001402:	f8a3 a0f0 	strh.w	sl, [r3, #240]	@ 0xf0
20001406:	f8a3 5120 	strh.w	r5, [r3, #288]	@ 0x120
2000140a:	f8a3 c138 	strh.w	ip, [r3, #312]	@ 0x138
2000140e:	f8a3 0150 	strh.w	r0, [r3, #336]	@ 0x150
20001412:	f8a3 9030 	strh.w	r9, [r3, #48]	@ 0x30
20001416:	f8a3 6060 	strh.w	r6, [r3, #96]	@ 0x60
2000141a:	f8a3 70d8 	strh.w	r7, [r3, #216]	@ 0xd8
2000141e:	801a      	strh	r2, [r3, #0]
20001420:	4b0d      	ldr	r3, [pc, #52]	@ (20001458 <runtime_init_default_alarm_pool+0xf0>)
20001422:	4630      	mov	r0, r6
20001424:	f8c8 7020 	str.w	r7, [r8, #32]
20001428:	490c      	ldr	r1, [pc, #48]	@ (2000145c <runtime_init_default_alarm_pool+0xf4>)
2000142a:	60dc      	str	r4, [r3, #12]
2000142c:	f7ff fb5e 	bl	20000aec <irq_set_exclusive_handler>
20001430:	4649      	mov	r1, r9
20001432:	4630      	mov	r0, r6
20001434:	f7ff fb44 	bl	20000ac0 <irq_set_enabled>
20001438:	4b09      	ldr	r3, [pc, #36]	@ (20001460 <runtime_init_default_alarm_pool+0xf8>)
2000143a:	210a      	movs	r1, #10
2000143c:	641f      	str	r7, [r3, #64]	@ 0x40
2000143e:	4803      	ldr	r0, [pc, #12]	@ (2000144c <runtime_init_default_alarm_pool+0xe4>)
20001440:	e8bd 4ff8 	ldmia.w	sp!, {r3, r4, r5, r6, r7, r8, r9, sl, fp, lr}
20001444:	f7ff bdce 	b.w	20000fe4 <lock_init>
20001448:	20005318 	.word	0x20005318
2000144c:	200055a8 	.word	0x200055a8
20001450:	20005520 	.word	0x20005520
20001454:	0010ffff 	.word	0x0010ffff
20001458:	20005580 	.word	0x20005580
2000145c:	20001079 	.word	0x20001079
20001460:	400b2000 	.word	0x400b2000
20001464:	400b0000 	.word	0x400b0000

20001468 <alarm_pool_add_alarm_at_force_in_context>:
20001468:	4601      	mov	r1, r0
2000146a:	b5f0      	push	{r4, r5, r6, r7, lr}
2000146c:	6900      	ldr	r0, [r0, #16]
2000146e:	f3ef 8710 	mrs	r7, PRIMASK
20001472:	b672      	cpsid	i
20001474:	e8d0 5fcf 	ldaexb	r5, [r0]
20001478:	2401      	movs	r4, #1
2000147a:	2d00      	cmp	r5, #0
2000147c:	d1fa      	bne.n	20001474 <alarm_pool_add_alarm_at_force_in_context+0xc>
2000147e:	e8c0 4f45 	strexb	r5, r4, [r0]
20001482:	2d00      	cmp	r5, #0
20001484:	d1f6      	bne.n	20001474 <alarm_pool_add_alarm_at_force_in_context+0xc>
20001486:	f3bf 8f5f 	dmb	sy
2000148a:	f9b1 e002 	ldrsh.w	lr, [r1, #2]
2000148e:	694c      	ldr	r4, [r1, #20]
20001490:	eb0e 0c4e 	add.w	ip, lr, lr, lsl #1
20001494:	f1be 0f00 	cmp.w	lr, #0
20001498:	ea4f 05cc 	mov.w	r5, ip, lsl #3
2000149c:	6908      	ldr	r0, [r1, #16]
2000149e:	eb04 0ccc 	add.w	ip, r4, ip, lsl #3
200014a2:	db3c      	blt.n	2000151e <alarm_pool_add_alarm_at_force_in_context+0xb6>
200014a4:	5b66      	ldrh	r6, [r4, r5]
200014a6:	804e      	strh	r6, [r1, #2]
200014a8:	2600      	movs	r6, #0
200014aa:	e8c0 6f8f 	stlb	r6, [r0]
200014ae:	f387 8810 	msr	PRIMASK, r7
200014b2:	f8bc 0002 	ldrh.w	r0, [ip, #2]
200014b6:	e9cc 2302 	strd	r2, r3, [ip, #8]
200014ba:	3001      	adds	r0, #1
200014bc:	f3c0 000e 	ubfx	r0, r0, #0, #15
200014c0:	2801      	cmp	r0, #1
200014c2:	bf38      	it	cc
200014c4:	2001      	movcc	r0, #1
200014c6:	9b05      	ldr	r3, [sp, #20]
200014c8:	f8ac 0002 	strh.w	r0, [ip, #2]
200014cc:	f8cc 3010 	str.w	r3, [ip, #16]
200014d0:	9b06      	ldr	r3, [sp, #24]
200014d2:	ea40 400e 	orr.w	r0, r0, lr, lsl #16
200014d6:	f8cc 3014 	str.w	r3, [ip, #20]
200014da:	690b      	ldr	r3, [r1, #16]
200014dc:	f3ef 8210 	mrs	r2, PRIMASK
200014e0:	b672      	cpsid	i
200014e2:	e8d3 cfcf 	ldaexb	ip, [r3]
200014e6:	2701      	movs	r7, #1
200014e8:	f1bc 0f00 	cmp.w	ip, #0
200014ec:	d1f9      	bne.n	200014e2 <alarm_pool_add_alarm_at_force_in_context+0x7a>
200014ee:	e8c3 7f4c 	strexb	ip, r7, [r3]
200014f2:	f1bc 0f00 	cmp.w	ip, #0
200014f6:	d1f4      	bne.n	200014e2 <alarm_pool_add_alarm_at_force_in_context+0x7a>
200014f8:	f3bf 8f5f 	dmb	sy
200014fc:	888b      	ldrh	r3, [r1, #4]
200014fe:	5363      	strh	r3, [r4, r5]
20001500:	f8a1 e004 	strh.w	lr, [r1, #4]
20001504:	690b      	ldr	r3, [r1, #16]
20001506:	e8c3 6f8f 	stlb	r6, [r3]
2000150a:	f382 8810 	msr	PRIMASK, r2
2000150e:	2201      	movs	r2, #1
20001510:	68cb      	ldr	r3, [r1, #12]
20001512:	7809      	ldrb	r1, [r1, #0]
20001514:	f503 5301 	add.w	r3, r3, #8256	@ 0x2040
20001518:	408a      	lsls	r2, r1
2000151a:	605a      	str	r2, [r3, #4]
2000151c:	bdf0      	pop	{r4, r5, r6, r7, pc}
2000151e:	2300      	movs	r3, #0
20001520:	e8c0 3f8f 	stlb	r3, [r0]
20001524:	f387 8810 	msr	PRIMASK, r7
20001528:	f04f 30ff 	mov.w	r0, #4294967295
2000152c:	bdf0      	pop	{r4, r5, r6, r7, pc}
2000152e:	bf00      	nop

20001530 <alarm_pool_cancel_alarm>:
20001530:	4603      	mov	r3, r0
20001532:	8940      	ldrh	r0, [r0, #10]
20001534:	ebb0 4f21 	cmp.w	r0, r1, asr #16
20001538:	dd37      	ble.n	200015aa <alarm_pool_cancel_alarm+0x7a>
2000153a:	6958      	ldr	r0, [r3, #20]
2000153c:	140a      	asrs	r2, r1, #16
2000153e:	eb02 0242 	add.w	r2, r2, r2, lsl #1
20001542:	b510      	push	{r4, lr}
20001544:	eb00 00c2 	add.w	r0, r0, r2, lsl #3
20001548:	691c      	ldr	r4, [r3, #16]
2000154a:	f3ef 8c10 	mrs	ip, PRIMASK
2000154e:	b672      	cpsid	i
20001550:	e8d4 efcf 	ldaexb	lr, [r4]
20001554:	2201      	movs	r2, #1
20001556:	f1be 0f00 	cmp.w	lr, #0
2000155a:	d1f9      	bne.n	20001550 <alarm_pool_cancel_alarm+0x20>
2000155c:	e8c4 2f4e 	strexb	lr, r2, [r4]
20001560:	f1be 0f00 	cmp.w	lr, #0
20001564:	d1f4      	bne.n	20001550 <alarm_pool_cancel_alarm+0x20>
20001566:	f3bf 8f5f 	dmb	sy
2000156a:	8842      	ldrh	r2, [r0, #2]
2000156c:	b289      	uxth	r1, r1
2000156e:	b292      	uxth	r2, r2
20001570:	428a      	cmp	r2, r1
20001572:	d007      	beq.n	20001584 <alarm_pool_cancel_alarm+0x54>
20001574:	2200      	movs	r2, #0
20001576:	691b      	ldr	r3, [r3, #16]
20001578:	e8c3 2f8f 	stlb	r2, [r3]
2000157c:	f38c 8810 	msr	PRIMASK, ip
20001580:	2000      	movs	r0, #0
20001582:	bd10      	pop	{r4, pc}
20001584:	f442 4200 	orr.w	r2, r2, #32768	@ 0x8000
20001588:	8042      	strh	r2, [r0, #2]
2000158a:	2101      	movs	r1, #1
2000158c:	2200      	movs	r2, #0
2000158e:	6918      	ldr	r0, [r3, #16]
20001590:	7199      	strb	r1, [r3, #6]
20001592:	e8c0 2f8f 	stlb	r2, [r0]
20001596:	f38c 8810 	msr	PRIMASK, ip
2000159a:	781c      	ldrb	r4, [r3, #0]
2000159c:	68da      	ldr	r2, [r3, #12]
2000159e:	4608      	mov	r0, r1
200015a0:	f502 5301 	add.w	r3, r2, #8256	@ 0x2040
200015a4:	40a1      	lsls	r1, r4
200015a6:	6059      	str	r1, [r3, #4]
200015a8:	bd10      	pop	{r4, pc}
200015aa:	2000      	movs	r0, #0
200015ac:	4770      	bx	lr
200015ae:	bf00      	nop

200015b0 <sleep_us>:
200015b0:	e92d 41f0 	stmdb	sp!, {r4, r5, r6, r7, r8, lr}
200015b4:	b082      	sub	sp, #8
200015b6:	4604      	mov	r4, r0
200015b8:	460e      	mov	r6, r1
200015ba:	f000 f957 	bl	2000186c <time_us_64>
200015be:	f04f 32ff 	mov.w	r2, #4294967295
200015c2:	f06f 4300 	mvn.w	r3, #2147483648	@ 0x80000000
200015c6:	1824      	adds	r4, r4, r0
200015c8:	eb46 0601 	adc.w	r6, r6, r1
200015cc:	42a2      	cmp	r2, r4
200015ce:	eb73 0106 	sbcs.w	r1, r3, r6
200015d2:	bf3c      	itt	cc
200015d4:	4614      	movcc	r4, r2
200015d6:	461e      	movcc	r6, r3
200015d8:	1fa5      	subs	r5, r4, #6
200015da:	f146 37ff 	adc.w	r7, r6, #4294967295
200015de:	42ac      	cmp	r4, r5
200015e0:	eb76 0307 	sbcs.w	r3, r6, r7
200015e4:	bf3c      	itt	cc
200015e6:	2500      	movcc	r5, #0
200015e8:	462f      	movcc	r7, r5
200015ea:	f000 f93f 	bl	2000186c <time_us_64>
200015ee:	1a28      	subs	r0, r5, r0
200015f0:	eb67 0c01 	sbc.w	ip, r7, r1
200015f4:	2801      	cmp	r0, #1
200015f6:	f17c 0c00 	sbcs.w	ip, ip, #0
200015fa:	da06      	bge.n	2000160a <sleep_us+0x5a>
200015fc:	4620      	mov	r0, r4
200015fe:	4631      	mov	r1, r6
20001600:	b002      	add	sp, #8
20001602:	e8bd 41f0 	ldmia.w	sp!, {r4, r5, r6, r7, r8, lr}
20001606:	f000 b93b 	b.w	20001880 <busy_wait_until>
2000160a:	f000 f92f 	bl	2000186c <time_us_64>
2000160e:	4285      	cmp	r5, r0
20001610:	eb67 0101 	sbc.w	r1, r7, r1
20001614:	2900      	cmp	r1, #0
20001616:	db0a      	blt.n	2000162e <sleep_us+0x7e>
20001618:	2100      	movs	r1, #0
2000161a:	4b17      	ldr	r3, [pc, #92]	@ (20001678 <sleep_us+0xc8>)
2000161c:	462a      	mov	r2, r5
2000161e:	9300      	str	r3, [sp, #0]
20001620:	4816      	ldr	r0, [pc, #88]	@ (2000167c <sleep_us+0xcc>)
20001622:	463b      	mov	r3, r7
20001624:	9101      	str	r1, [sp, #4]
20001626:	f7ff ff1f 	bl	20001468 <alarm_pool_add_alarm_at_force_in_context>
2000162a:	3001      	adds	r0, #1
2000162c:	d0e6      	beq.n	200015fc <sleep_us+0x4c>
2000162e:	f04f 0c00 	mov.w	ip, #0
20001632:	4a13      	ldr	r2, [pc, #76]	@ (20001680 <sleep_us+0xd0>)
20001634:	4913      	ldr	r1, [pc, #76]	@ (20001684 <sleep_us+0xd4>)
20001636:	6a53      	ldr	r3, [r2, #36]	@ 0x24
20001638:	429f      	cmp	r7, r3
2000163a:	d804      	bhi.n	20001646 <sleep_us+0x96>
2000163c:	6a90      	ldr	r0, [r2, #40]	@ 0x28
2000163e:	42a8      	cmp	r0, r5
20001640:	d2dc      	bcs.n	200015fc <sleep_us+0x4c>
20001642:	429f      	cmp	r7, r3
20001644:	d1da      	bne.n	200015fc <sleep_us+0x4c>
20001646:	680b      	ldr	r3, [r1, #0]
20001648:	f3ef 8010 	mrs	r0, PRIMASK
2000164c:	b672      	cpsid	i
2000164e:	e8d3 8fcf 	ldaexb	r8, [r3]
20001652:	f05f 0e01 	movs.w	lr, #1
20001656:	f1b8 0f00 	cmp.w	r8, #0
2000165a:	d1f8      	bne.n	2000164e <sleep_us+0x9e>
2000165c:	e8c3 ef48 	strexb	r8, lr, [r3]
20001660:	f1b8 0f00 	cmp.w	r8, #0
20001664:	d1f3      	bne.n	2000164e <sleep_us+0x9e>
20001666:	f3bf 8f5f 	dmb	sy
2000166a:	680b      	ldr	r3, [r1, #0]
2000166c:	e8c3 cf8f 	stlb	ip, [r3]
20001670:	f380 8810 	msr	PRIMASK, r0
20001674:	bf20      	wfe
20001676:	e7de      	b.n	20001636 <sleep_us+0x86>
20001678:	2000103d 	.word	0x2000103d
2000167c:	20005318 	.word	0x20005318
20001680:	400b0000 	.word	0x400b0000
20001684:	200055a8 	.word	0x200055a8

20001688 <sleep_ms>:
20001688:	e92d 41f0 	stmdb	sp!, {r4, r5, r6, r7, r8, lr}
2000168c:	b082      	sub	sp, #8
2000168e:	4606      	mov	r6, r0
20001690:	f000 f8ec 	bl	2000186c <time_us_64>
20001694:	f44f 737a 	mov.w	r3, #1000	@ 0x3e8
20001698:	4604      	mov	r4, r0
2000169a:	f04f 30ff 	mov.w	r0, #4294967295
2000169e:	f06f 4200 	mvn.w	r2, #2147483648	@ 0x80000000
200016a2:	fbe6 4103 	umlal	r4, r1, r6, r3
200016a6:	42a0      	cmp	r0, r4
200016a8:	eb72 0301 	sbcs.w	r3, r2, r1
200016ac:	bf3a      	itte	cc
200016ae:	4604      	movcc	r4, r0
200016b0:	4615      	movcc	r5, r2
200016b2:	460d      	movcs	r5, r1
200016b4:	1fa6      	subs	r6, r4, #6
200016b6:	f145 37ff 	adc.w	r7, r5, #4294967295
200016ba:	42b4      	cmp	r4, r6
200016bc:	eb75 0307 	sbcs.w	r3, r5, r7
200016c0:	bf3c      	itt	cc
200016c2:	2600      	movcc	r6, #0
200016c4:	4637      	movcc	r7, r6
200016c6:	f000 f8d1 	bl	2000186c <time_us_64>
200016ca:	1a30      	subs	r0, r6, r0
200016cc:	eb67 0101 	sbc.w	r1, r7, r1
200016d0:	2801      	cmp	r0, #1
200016d2:	f171 0100 	sbcs.w	r1, r1, #0
200016d6:	da06      	bge.n	200016e6 <sleep_ms+0x5e>
200016d8:	4620      	mov	r0, r4
200016da:	4629      	mov	r1, r5
200016dc:	b002      	add	sp, #8
200016de:	e8bd 41f0 	ldmia.w	sp!, {r4, r5, r6, r7, r8, lr}
200016e2:	f000 b8cd 	b.w	20001880 <busy_wait_until>
200016e6:	f000 f8c1 	bl	2000186c <time_us_64>
200016ea:	4286      	cmp	r6, r0
200016ec:	eb67 0101 	sbc.w	r1, r7, r1
200016f0:	2900      	cmp	r1, #0
200016f2:	db0a      	blt.n	2000170a <sleep_ms+0x82>
200016f4:	2100      	movs	r1, #0
200016f6:	4b17      	ldr	r3, [pc, #92]	@ (20001754 <sleep_ms+0xcc>)
200016f8:	4632      	mov	r2, r6
200016fa:	9300      	str	r3, [sp, #0]
200016fc:	4816      	ldr	r0, [pc, #88]	@ (20001758 <sleep_ms+0xd0>)
200016fe:	463b      	mov	r3, r7
20001700:	9101      	str	r1, [sp, #4]
20001702:	f7ff feb1 	bl	20001468 <alarm_pool_add_alarm_at_force_in_context>
20001706:	3001      	adds	r0, #1
20001708:	d0e6      	beq.n	200016d8 <sleep_ms+0x50>
2000170a:	f04f 0c00 	mov.w	ip, #0
2000170e:	4a13      	ldr	r2, [pc, #76]	@ (2000175c <sleep_ms+0xd4>)
20001710:	4913      	ldr	r1, [pc, #76]	@ (20001760 <sleep_ms+0xd8>)
20001712:	6a53      	ldr	r3, [r2, #36]	@ 0x24
20001714:	429f      	cmp	r7, r3
20001716:	d804      	bhi.n	20001722 <sleep_ms+0x9a>
20001718:	6a90      	ldr	r0, [r2, #40]	@ 0x28
2000171a:	42b0      	cmp	r0, r6
2000171c:	d2dc      	bcs.n	200016d8 <sleep_ms+0x50>
2000171e:	429f      	cmp	r7, r3
20001720:	d1da      	bne.n	200016d8 <sleep_ms+0x50>
20001722:	680b      	ldr	r3, [r1, #0]
20001724:	f3ef 8010 	mrs	r0, PRIMASK
20001728:	b672      	cpsid	i
2000172a:	e8d3 8fcf 	ldaexb	r8, [r3]
2000172e:	f05f 0e01 	movs.w	lr, #1
20001732:	f1b8 0f00 	cmp.w	r8, #0
20001736:	d1f8      	bne.n	2000172a <sleep_ms+0xa2>
20001738:	e8c3 ef48 	strexb	r8, lr, [r3]
2000173c:	f1b8 0f00 	cmp.w	r8, #0
20001740:	d1f3      	bne.n	2000172a <sleep_ms+0xa2>
20001742:	f3bf 8f5f 	dmb	sy
20001746:	680b      	ldr	r3, [r1, #0]
20001748:	e8c3 cf8f 	stlb	ip, [r3]
2000174c:	f380 8810 	msr	PRIMASK, r0
20001750:	bf20      	wfe
20001752:	e7de      	b.n	20001712 <sleep_ms+0x8a>
20001754:	2000103d 	.word	0x2000103d
20001758:	20005318 	.word	0x20005318
2000175c:	400b0000 	.word	0x400b0000
20001760:	200055a8 	.word	0x200055a8

20001764 <best_effort_wfe_or_timeout>:
20001764:	e92d 43f0 	stmdb	sp!, {r4, r5, r6, r7, r8, r9, lr}
20001768:	4606      	mov	r6, r0
2000176a:	460d      	mov	r5, r1
2000176c:	b083      	sub	sp, #12
2000176e:	f3ef 8405 	mrs	r4, IPSR
20001772:	b2e4      	uxtb	r4, r4
20001774:	b13c      	cbz	r4, 20001786 <best_effort_wfe_or_timeout+0x22>
20001776:	4b2d      	ldr	r3, [pc, #180]	@ (2000182c <best_effort_wfe_or_timeout+0xc8>)
20001778:	6a5a      	ldr	r2, [r3, #36]	@ 0x24
2000177a:	42aa      	cmp	r2, r5
2000177c:	d21c      	bcs.n	200017b8 <best_effort_wfe_or_timeout+0x54>
2000177e:	2000      	movs	r0, #0
20001780:	b003      	add	sp, #12
20001782:	e8bd 83f0 	ldmia.w	sp!, {r4, r5, r6, r7, r8, r9, pc}
20001786:	4f2a      	ldr	r7, [pc, #168]	@ (20001830 <best_effort_wfe_or_timeout+0xcc>)
20001788:	f8d7 900c 	ldr.w	r9, [r7, #12]
2000178c:	f897 8000 	ldrb.w	r8, [r7]
20001790:	4648      	mov	r0, r9
20001792:	f000 f863 	bl	2000185c <timer_time_us_64>
20001796:	f108 0804 	add.w	r8, r8, #4
2000179a:	f859 3028 	ldr.w	r3, [r9, r8, lsl #2]
2000179e:	1a1b      	subs	r3, r3, r0
200017a0:	1a30      	subs	r0, r6, r0
200017a2:	eb65 0101 	sbc.w	r1, r5, r1
200017a6:	4298      	cmp	r0, r3
200017a8:	f171 0100 	sbcs.w	r1, r1, #0
200017ac:	db10      	blt.n	200017d0 <best_effort_wfe_or_timeout+0x6c>
200017ae:	bf20      	wfe
200017b0:	4b1e      	ldr	r3, [pc, #120]	@ (2000182c <best_effort_wfe_or_timeout+0xc8>)
200017b2:	6a5a      	ldr	r2, [r3, #36]	@ 0x24
200017b4:	42aa      	cmp	r2, r5
200017b6:	d3e2      	bcc.n	2000177e <best_effort_wfe_or_timeout+0x1a>
200017b8:	bf14      	ite	ne
200017ba:	2401      	movne	r4, #1
200017bc:	2400      	moveq	r4, #0
200017be:	6a9b      	ldr	r3, [r3, #40]	@ 0x28
200017c0:	42b3      	cmp	r3, r6
200017c2:	bf34      	ite	cc
200017c4:	4620      	movcc	r0, r4
200017c6:	f044 0001 	orrcs.w	r0, r4, #1
200017ca:	b003      	add	sp, #12
200017cc:	e8bd 83f0 	ldmia.w	sp!, {r4, r5, r6, r7, r8, r9, pc}
200017d0:	f000 f84c 	bl	2000186c <time_us_64>
200017d4:	4286      	cmp	r6, r0
200017d6:	eb65 0101 	sbc.w	r1, r5, r1
200017da:	2900      	cmp	r1, #0
200017dc:	db14      	blt.n	20001808 <best_effort_wfe_or_timeout+0xa4>
200017de:	4b15      	ldr	r3, [pc, #84]	@ (20001834 <best_effort_wfe_or_timeout+0xd0>)
200017e0:	4638      	mov	r0, r7
200017e2:	e9cd 3400 	strd	r3, r4, [sp]
200017e6:	4632      	mov	r2, r6
200017e8:	462b      	mov	r3, r5
200017ea:	f7ff fe3d 	bl	20001468 <alarm_pool_add_alarm_at_force_in_context>
200017ee:	1e01      	subs	r1, r0, #0
200017f0:	dd0a      	ble.n	20001808 <best_effort_wfe_or_timeout+0xa4>
200017f2:	4b0e      	ldr	r3, [pc, #56]	@ (2000182c <best_effort_wfe_or_timeout+0xc8>)
200017f4:	6a5a      	ldr	r2, [r3, #36]	@ 0x24
200017f6:	42aa      	cmp	r2, r5
200017f8:	d316      	bcc.n	20001828 <best_effort_wfe_or_timeout+0xc4>
200017fa:	6a9b      	ldr	r3, [r3, #40]	@ 0x28
200017fc:	42b3      	cmp	r3, r6
200017fe:	d311      	bcc.n	20001824 <best_effort_wfe_or_timeout+0xc0>
20001800:	480b      	ldr	r0, [pc, #44]	@ (20001830 <best_effort_wfe_or_timeout+0xcc>)
20001802:	f7ff fe95 	bl	20001530 <alarm_pool_cancel_alarm>
20001806:	e7b6      	b.n	20001776 <best_effort_wfe_or_timeout+0x12>
20001808:	4b08      	ldr	r3, [pc, #32]	@ (2000182c <best_effort_wfe_or_timeout+0xc8>)
2000180a:	6a5c      	ldr	r4, [r3, #36]	@ 0x24
2000180c:	42ac      	cmp	r4, r5
2000180e:	d3b6      	bcc.n	2000177e <best_effort_wfe_or_timeout+0x1a>
20001810:	1b64      	subs	r4, r4, r5
20001812:	bf18      	it	ne
20001814:	2401      	movne	r4, #1
20001816:	6a9b      	ldr	r3, [r3, #40]	@ 0x28
20001818:	42b3      	cmp	r3, r6
2000181a:	bf34      	ite	cc
2000181c:	4620      	movcc	r0, r4
2000181e:	f044 0001 	orrcs.w	r0, r4, #1
20001822:	e7ad      	b.n	20001780 <best_effort_wfe_or_timeout+0x1c>
20001824:	42aa      	cmp	r2, r5
20001826:	d1eb      	bne.n	20001800 <best_effort_wfe_or_timeout+0x9c>
20001828:	bf20      	wfe
2000182a:	e7e9      	b.n	20001800 <best_effort_wfe_or_timeout+0x9c>
2000182c:	400b0000 	.word	0x400b0000
20001830:	20005318 	.word	0x20005318
20001834:	2000103d 	.word	0x2000103d

20001838 <timer_hardware_alarm_claim>:
20001838:	b410      	push	{r4}
2000183a:	4b05      	ldr	r3, [pc, #20]	@ (20001850 <timer_hardware_alarm_claim+0x18>)
2000183c:	4c05      	ldr	r4, [pc, #20]	@ (20001854 <timer_hardware_alarm_claim+0x1c>)
2000183e:	4a06      	ldr	r2, [pc, #24]	@ (20001858 <timer_hardware_alarm_claim+0x20>)
20001840:	42a0      	cmp	r0, r4
20001842:	bf14      	ite	ne
20001844:	4618      	movne	r0, r3
20001846:	1c58      	addeq	r0, r3, #1
20001848:	f85d 4b04 	ldr.w	r4, [sp], #4
2000184c:	f7ff b8cc 	b.w	200009e8 <hw_claim_or_assert>
20001850:	20005548 	.word	0x20005548
20001854:	400b8000 	.word	0x400b8000
20001858:	2000519c 	.word	0x2000519c

2000185c <timer_time_us_64>:
2000185c:	4603      	mov	r3, r0
2000185e:	6a41      	ldr	r1, [r0, #36]	@ 0x24
20001860:	460a      	mov	r2, r1
20001862:	6a98      	ldr	r0, [r3, #40]	@ 0x28
20001864:	6a59      	ldr	r1, [r3, #36]	@ 0x24
20001866:	428a      	cmp	r2, r1
20001868:	d1fa      	bne.n	20001860 <timer_time_us_64+0x4>
2000186a:	4770      	bx	lr

2000186c <time_us_64>:
2000186c:	4b03      	ldr	r3, [pc, #12]	@ (2000187c <time_us_64+0x10>)
2000186e:	6a59      	ldr	r1, [r3, #36]	@ 0x24
20001870:	460a      	mov	r2, r1
20001872:	6a98      	ldr	r0, [r3, #40]	@ 0x28
20001874:	6a59      	ldr	r1, [r3, #36]	@ 0x24
20001876:	4291      	cmp	r1, r2
20001878:	d1fa      	bne.n	20001870 <time_us_64+0x4>
2000187a:	4770      	bx	lr
2000187c:	400b0000 	.word	0x400b0000

20001880 <busy_wait_until>:
20001880:	4a07      	ldr	r2, [pc, #28]	@ (200018a0 <busy_wait_until+0x20>)
20001882:	6a53      	ldr	r3, [r2, #36]	@ 0x24
20001884:	4299      	cmp	r1, r3
20001886:	d8fc      	bhi.n	20001882 <busy_wait_until+0x2>
20001888:	4299      	cmp	r1, r3
2000188a:	d107      	bne.n	2000189c <busy_wait_until+0x1c>
2000188c:	4b04      	ldr	r3, [pc, #16]	@ (200018a0 <busy_wait_until+0x20>)
2000188e:	e002      	b.n	20001896 <busy_wait_until+0x16>
20001890:	6a5a      	ldr	r2, [r3, #36]	@ 0x24
20001892:	4291      	cmp	r1, r2
20001894:	d102      	bne.n	2000189c <busy_wait_until+0x1c>
20001896:	6a9a      	ldr	r2, [r3, #40]	@ 0x28
20001898:	4290      	cmp	r0, r2
2000189a:	d8f9      	bhi.n	20001890 <busy_wait_until+0x10>
2000189c:	4770      	bx	lr
2000189e:	bf00      	nop
200018a0:	400b0000 	.word	0x400b0000

200018a4 <clock_configure_undivided>:
200018a4:	eb00 0c40 	add.w	ip, r0, r0, lsl #1
200018a8:	ea4f 0c8c 	mov.w	ip, ip, lsl #2
200018ac:	f10c 4c80 	add.w	ip, ip, #1073741824	@ 0x40000000
200018b0:	f50c 3c80 	add.w	ip, ip, #65536	@ 0x10000
200018b4:	b5f0      	push	{r4, r5, r6, r7, lr}
200018b6:	4616      	mov	r6, r2
200018b8:	f8dc 2004 	ldr.w	r2, [ip, #4]
200018bc:	1f05      	subs	r5, r0, #4
200018be:	f5b2 3f80 	cmp.w	r2, #65536	@ 0x10000
200018c2:	bf38      	it	cc
200018c4:	f44f 3280 	movcc.w	r2, #65536	@ 0x10000
200018c8:	b2ed      	uxtb	r5, r5
200018ca:	bf38      	it	cc
200018cc:	f8cc 2004 	strcc.w	r2, [ip, #4]
200018d0:	2d01      	cmp	r5, #1
200018d2:	d92a      	bls.n	2000192a <clock_configure_undivided+0x86>
200018d4:	f44f 6700 	mov.w	r7, #2048	@ 0x800
200018d8:	4c25      	ldr	r4, [pc, #148]	@ (20001970 <clock_configure_undivided+0xcc>)
200018da:	f50c 5240 	add.w	r2, ip, #12288	@ 0x3000
200018de:	6017      	str	r7, [r2, #0]
200018e0:	f854 2020 	ldr.w	r2, [r4, r0, lsl #2]
200018e4:	b9b2      	cbnz	r2, 20001914 <clock_configure_undivided+0x70>
200018e6:	f8dc 2000 	ldr.w	r2, [ip]
200018ea:	2d01      	cmp	r5, #1
200018ec:	ea82 1246 	eor.w	r2, r2, r6, lsl #5
200018f0:	f002 02e0 	and.w	r2, r2, #224	@ 0xe0
200018f4:	f50c 5680 	add.w	r6, ip, #4096	@ 0x1000
200018f8:	6032      	str	r2, [r6, #0]
200018fa:	d92a      	bls.n	20001952 <clock_configure_undivided+0xae>
200018fc:	f44f 6100 	mov.w	r1, #2048	@ 0x800
20001900:	f844 3020 	str.w	r3, [r4, r0, lsl #2]
20001904:	f44f 3380 	mov.w	r3, #65536	@ 0x10000
20001908:	f50c 5200 	add.w	r2, ip, #8192	@ 0x2000
2000190c:	6011      	str	r1, [r2, #0]
2000190e:	f8cc 3004 	str.w	r3, [ip, #4]
20001912:	bdf0      	pop	{r4, r5, r6, r7, pc}
20001914:	6967      	ldr	r7, [r4, #20]
20001916:	fbb7 fef2 	udiv	lr, r7, r2
2000191a:	f10e 0e01 	add.w	lr, lr, #1
2000191e:	eb0e 0e4e 	add.w	lr, lr, lr, lsl #1
20001922:	f1be 0e03 	subs.w	lr, lr, #3
20001926:	d2fc      	bcs.n	20001922 <clock_configure_undivided+0x7e>
20001928:	e7dd      	b.n	200018e6 <clock_configure_undivided+0x42>
2000192a:	2901      	cmp	r1, #1
2000192c:	d1d2      	bne.n	200018d4 <clock_configure_undivided+0x30>
2000192e:	2403      	movs	r4, #3
20001930:	f50c 5240 	add.w	r2, ip, #12288	@ 0x3000
20001934:	6014      	str	r4, [r2, #0]
20001936:	f8dc 2008 	ldr.w	r2, [ip, #8]
2000193a:	07d2      	lsls	r2, r2, #31
2000193c:	d5fb      	bpl.n	20001936 <clock_configure_undivided+0x92>
2000193e:	f8dc 2000 	ldr.w	r2, [ip]
20001942:	4c0b      	ldr	r4, [pc, #44]	@ (20001970 <clock_configure_undivided+0xcc>)
20001944:	ea82 1246 	eor.w	r2, r2, r6, lsl #5
20001948:	f002 02e0 	and.w	r2, r2, #224	@ 0xe0
2000194c:	f50c 5680 	add.w	r6, ip, #4096	@ 0x1000
20001950:	6032      	str	r2, [r6, #0]
20001952:	2201      	movs	r2, #1
20001954:	f8dc 5000 	ldr.w	r5, [ip]
20001958:	404d      	eors	r5, r1
2000195a:	f005 0503 	and.w	r5, r5, #3
2000195e:	6035      	str	r5, [r6, #0]
20001960:	fa02 f101 	lsl.w	r1, r2, r1
20001964:	f8dc 2008 	ldr.w	r2, [ip, #8]
20001968:	420a      	tst	r2, r1
2000196a:	d0fb      	beq.n	20001964 <clock_configure_undivided+0xc0>
2000196c:	e7c6      	b.n	200018fc <clock_configure_undivided+0x58>
2000196e:	bf00      	nop
20001970:	2000554c 	.word	0x2000554c

20001974 <clock_get_hz>:
20001974:	4b01      	ldr	r3, [pc, #4]	@ (2000197c <clock_get_hz+0x8>)
20001976:	f853 0020 	ldr.w	r0, [r3, r0, lsl #2]
2000197a:	4770      	bx	lr
2000197c:	2000554c 	.word	0x2000554c

20001980 <pll_init>:
20001980:	b470      	push	{r4, r5, r6}
20001982:	9d03      	ldr	r5, [sp, #12]
20001984:	6804      	ldr	r4, [r0, #0]
20001986:	032d      	lsls	r5, r5, #12
20001988:	ea45 4503 	orr.w	r5, r5, r3, lsl #16
2000198c:	4b1b      	ldr	r3, [pc, #108]	@ (200019fc <pll_init+0x7c>)
2000198e:	2c00      	cmp	r4, #0
20001990:	fbb3 f3f1 	udiv	r3, r3, r1
20001994:	fbb2 f6f3 	udiv	r6, r2, r3
20001998:	db1f      	blt.n	200019da <pll_init+0x5a>
2000199a:	4a19      	ldr	r2, [pc, #100]	@ (20001a00 <pll_init+0x80>)
2000199c:	4b19      	ldr	r3, [pc, #100]	@ (20001a04 <pll_init+0x84>)
2000199e:	4290      	cmp	r0, r2
200019a0:	bf14      	ite	ne
200019a2:	f44f 4280 	movne.w	r2, #16384	@ 0x4000
200019a6:	f44f 4200 	moveq.w	r2, #32768	@ 0x8000
200019aa:	4c17      	ldr	r4, [pc, #92]	@ (20001a08 <pll_init+0x88>)
200019ac:	601a      	str	r2, [r3, #0]
200019ae:	f503 5380 	add.w	r3, r3, #4096	@ 0x1000
200019b2:	601a      	str	r2, [r3, #0]
200019b4:	68a3      	ldr	r3, [r4, #8]
200019b6:	ea32 0303 	bics.w	r3, r2, r3
200019ba:	d1fb      	bne.n	200019b4 <pll_init+0x34>
200019bc:	2221      	movs	r2, #33	@ 0x21
200019be:	f500 5340 	add.w	r3, r0, #12288	@ 0x3000
200019c2:	3304      	adds	r3, #4
200019c4:	6001      	str	r1, [r0, #0]
200019c6:	6086      	str	r6, [r0, #8]
200019c8:	601a      	str	r2, [r3, #0]
200019ca:	6802      	ldr	r2, [r0, #0]
200019cc:	2a00      	cmp	r2, #0
200019ce:	dafc      	bge.n	200019ca <pll_init+0x4a>
200019d0:	2208      	movs	r2, #8
200019d2:	60c5      	str	r5, [r0, #12]
200019d4:	601a      	str	r2, [r3, #0]
200019d6:	bc70      	pop	{r4, r5, r6}
200019d8:	4770      	bx	lr
200019da:	6803      	ldr	r3, [r0, #0]
200019dc:	f003 033f 	and.w	r3, r3, #63	@ 0x3f
200019e0:	428b      	cmp	r3, r1
200019e2:	d1da      	bne.n	2000199a <pll_init+0x1a>
200019e4:	6883      	ldr	r3, [r0, #8]
200019e6:	f3c3 030b 	ubfx	r3, r3, #0, #12
200019ea:	42b3      	cmp	r3, r6
200019ec:	d1d5      	bne.n	2000199a <pll_init+0x1a>
200019ee:	68c3      	ldr	r3, [r0, #12]
200019f0:	f403 23ee 	and.w	r3, r3, #487424	@ 0x77000
200019f4:	42ab      	cmp	r3, r5
200019f6:	d1d0      	bne.n	2000199a <pll_init+0x1a>
200019f8:	e7ed      	b.n	200019d6 <pll_init+0x56>
200019fa:	bf00      	nop
200019fc:	00b71b00 	.word	0x00b71b00
20001a00:	40058000 	.word	0x40058000
20001a04:	40022000 	.word	0x40022000
20001a08:	40020000 	.word	0x40020000

20001a0c <tick_start>:
20001a0c:	2301      	movs	r3, #1
20001a0e:	eb00 0040 	add.w	r0, r0, r0, lsl #1
20001a12:	0080      	lsls	r0, r0, #2
20001a14:	f100 4080 	add.w	r0, r0, #1073741824	@ 0x40000000
20001a18:	f500 1084 	add.w	r0, r0, #1081344	@ 0x108000
20001a1c:	6041      	str	r1, [r0, #4]
20001a1e:	6003      	str	r3, [r0, #0]
20001a20:	4770      	bx	lr
20001a22:	bf00      	nop

20001a24 <rom_func_lookup>:
20001a24:	2300      	movs	r3, #0
20001a26:	8adb      	ldrh	r3, [r3, #22]
20001a28:	2200      	movs	r2, #0
20001a2a:	e842 f200 	tt	r2, r2
20001a2e:	0252      	lsls	r2, r2, #9
20001a30:	d401      	bmi.n	20001a36 <rom_func_lookup+0x12>
20001a32:	2110      	movs	r1, #16
20001a34:	4718      	bx	r3
20001a36:	2104      	movs	r1, #4
20001a38:	4718      	bx	r3
20001a3a:	bf00      	nop

20001a3c <runtime_init_bootrom_locking_enable>:
20001a3c:	4a03      	ldr	r2, [pc, #12]	@ (20001a4c <runtime_init_bootrom_locking_enable+0x10>)
20001a3e:	f8d2 3828 	ldr.w	r3, [r2, #2088]	@ 0x828
20001a42:	2b00      	cmp	r3, #0
20001a44:	d0fb      	beq.n	20001a3e <runtime_init_bootrom_locking_enable+0x2>
20001a46:	f3bf 8f5f 	dmb	sy
20001a4a:	4770      	bx	lr
20001a4c:	400e0000 	.word	0x400e0000

20001a50 <runtime_init_boot_locks_reset>:
20001a50:	2100      	movs	r1, #0
20001a52:	4b04      	ldr	r3, [pc, #16]	@ (20001a64 <runtime_init_boot_locks_reset+0x14>)
20001a54:	4a04      	ldr	r2, [pc, #16]	@ (20001a68 <runtime_init_boot_locks_reset+0x18>)
20001a56:	f3bf 8f5f 	dmb	sy
20001a5a:	f843 1b04 	str.w	r1, [r3], #4
20001a5e:	4293      	cmp	r3, r2
20001a60:	d1f9      	bne.n	20001a56 <runtime_init_boot_locks_reset+0x6>
20001a62:	4770      	bx	lr
20001a64:	400e080c 	.word	0x400e080c
20001a68:	400e082c 	.word	0x400e082c

20001a6c <xosc_init>:
20001a6c:	b410      	push	{r4}
20001a6e:	f44f 708d 	mov.w	r0, #282	@ 0x11a
20001a72:	f44f 642a 	mov.w	r4, #2720	@ 0xaa0
20001a76:	4a06      	ldr	r2, [pc, #24]	@ (20001a90 <xosc_init+0x24>)
20001a78:	4b06      	ldr	r3, [pc, #24]	@ (20001a94 <xosc_init+0x28>)
20001a7a:	4907      	ldr	r1, [pc, #28]	@ (20001a98 <xosc_init+0x2c>)
20001a7c:	6014      	str	r4, [r2, #0]
20001a7e:	60d0      	str	r0, [r2, #12]
20001a80:	6019      	str	r1, [r3, #0]
20001a82:	6853      	ldr	r3, [r2, #4]
20001a84:	2b00      	cmp	r3, #0
20001a86:	dafc      	bge.n	20001a82 <xosc_init+0x16>
20001a88:	f85d 4b04 	ldr.w	r4, [sp], #4
20001a8c:	4770      	bx	lr
20001a8e:	bf00      	nop
20001a90:	40048000 	.word	0x40048000
20001a94:	4004a000 	.word	0x4004a000
20001a98:	00fab000 	.word	0x00fab000

20001a9c <first_per_core_initializer>:
20001a9c:	4770      	bx	lr
20001a9e:	bf00      	nop

20001aa0 <hard_assertion_failure>:
20001aa0:	b508      	push	{r3, lr}
20001aa2:	4801      	ldr	r0, [pc, #4]	@ (20001aa8 <hard_assertion_failure+0x8>)
20001aa4:	f7fe ff88 	bl	200009b8 <panic>
20001aa8:	200051c0 	.word	0x200051c0

20001aac <runtime_run_initializers>:
20001aac:	b538      	push	{r3, r4, r5, lr}
20001aae:	4c05      	ldr	r4, [pc, #20]	@ (20001ac4 <runtime_run_initializers+0x18>)
20001ab0:	4d05      	ldr	r5, [pc, #20]	@ (20001ac8 <runtime_run_initializers+0x1c>)
20001ab2:	42ac      	cmp	r4, r5
20001ab4:	d204      	bcs.n	20001ac0 <runtime_run_initializers+0x14>
20001ab6:	f854 3b04 	ldr.w	r3, [r4], #4
20001aba:	4798      	blx	r3
20001abc:	42ac      	cmp	r4, r5
20001abe:	d3fa      	bcc.n	20001ab6 <runtime_run_initializers+0xa>
20001ac0:	bd38      	pop	{r3, r4, r5, pc}
20001ac2:	bf00      	nop
20001ac4:	20005358 	.word	0x20005358
20001ac8:	20005390 	.word	0x20005390

20001acc <runtime_init_early_resets>:
20001acc:	b410      	push	{r4}
20001ace:	4807      	ldr	r0, [pc, #28]	@ (20001aec <runtime_init_early_resets+0x20>)
20001ad0:	4c07      	ldr	r4, [pc, #28]	@ (20001af0 <runtime_init_early_resets+0x24>)
20001ad2:	4b08      	ldr	r3, [pc, #32]	@ (20001af4 <runtime_init_early_resets+0x28>)
20001ad4:	4a08      	ldr	r2, [pc, #32]	@ (20001af8 <runtime_init_early_resets+0x2c>)
20001ad6:	4909      	ldr	r1, [pc, #36]	@ (20001afc <runtime_init_early_resets+0x30>)
20001ad8:	6004      	str	r4, [r0, #0]
20001ada:	601a      	str	r2, [r3, #0]
20001adc:	688b      	ldr	r3, [r1, #8]
20001ade:	ea32 0303 	bics.w	r3, r2, r3
20001ae2:	d1fb      	bne.n	20001adc <runtime_init_early_resets+0x10>
20001ae4:	f85d 4b04 	ldr.w	r4, [sp], #4
20001ae8:	4770      	bx	lr
20001aea:	bf00      	nop
20001aec:	40022000 	.word	0x40022000
20001af0:	efef3b7f 	.word	0xefef3b7f
20001af4:	40023000 	.word	0x40023000
20001af8:	03f3fff6 	.word	0x03f3fff6
20001afc:	40020000 	.word	0x40020000

20001b00 <runtime_init_usb_power_down>:
20001b00:	4b04      	ldr	r3, [pc, #16]	@ (20001b14 <runtime_init_usb_power_down+0x14>)
20001b02:	6cdb      	ldr	r3, [r3, #76]	@ 0x4c
20001b04:	f5b3 4f00 	cmp.w	r3, #32768	@ 0x8000
20001b08:	d103      	bne.n	20001b12 <runtime_init_usb_power_down+0x12>
20001b0a:	f44f 2280 	mov.w	r2, #262144	@ 0x40000
20001b0e:	4b02      	ldr	r3, [pc, #8]	@ (20001b18 <runtime_init_usb_power_down+0x18>)
20001b10:	64da      	str	r2, [r3, #76]	@ 0x4c
20001b12:	4770      	bx	lr
20001b14:	50110000 	.word	0x50110000
20001b18:	50112000 	.word	0x50112000

20001b1c <runtime_init_per_core_enable_coprocessors>:
20001b1c:	f04f 22e0 	mov.w	r2, #3758153728	@ 0xe000e000
20001b20:	4b04      	ldr	r3, [pc, #16]	@ (20001b34 <runtime_init_per_core_enable_coprocessors+0x18>)
20001b22:	f8d2 1d88 	ldr.w	r1, [r2, #3464]	@ 0xd88
20001b26:	430b      	orrs	r3, r1
20001b28:	f8c2 3d88 	str.w	r3, [r2, #3464]	@ 0xd88
20001b2c:	ee10 0430 			dcp_rcmp r0
20001b30:	4770      	bx	lr
20001b32:	bf00      	nop
20001b34:	00300303 	.word	0x00300303

20001b38 <runtime_init_post_clock_resets>:
20001b38:	f06f 4160 	mvn.w	r1, #3758096384	@ 0xe0000000
20001b3c:	4b04      	ldr	r3, [pc, #16]	@ (20001b50 <runtime_init_post_clock_resets+0x18>)
20001b3e:	4a05      	ldr	r2, [pc, #20]	@ (20001b54 <runtime_init_post_clock_resets+0x1c>)
20001b40:	6019      	str	r1, [r3, #0]
20001b42:	6893      	ldr	r3, [r2, #8]
20001b44:	43db      	mvns	r3, r3
20001b46:	f033 4360 	bics.w	r3, r3, #3758096384	@ 0xe0000000
20001b4a:	d1fa      	bne.n	20001b42 <runtime_init_post_clock_resets+0xa>
20001b4c:	4770      	bx	lr
20001b4e:	bf00      	nop
20001b50:	40023000 	.word	0x40023000
20001b54:	40020000 	.word	0x40020000

20001b58 <runtime_init_per_core_bootrom_reset>:
20001b58:	b510      	push	{r4, lr}
20001b5a:	f245 2053 	movw	r0, #21075	@ 0x5253
20001b5e:	f7ff ff61 	bl	20001a24 <rom_func_lookup>
20001b62:	e8bd 4010 	ldmia.w	sp!, {r4, lr}
20001b66:	4603      	mov	r3, r0
20001b68:	2001      	movs	r0, #1
20001b6a:	4718      	bx	r3

20001b6c <runtime_init_spin_locks_reset>:
20001b6c:	f7fe bf7c 	b.w	20000a68 <spin_locks_reset>

20001b70 <runtime_init_clocks>:
20001b70:	2300      	movs	r3, #0
20001b72:	b570      	push	{r4, r5, r6, lr}
20001b74:	4c2b      	ldr	r4, [pc, #172]	@ (20001c24 <runtime_init_clocks+0xb4>)
20001b76:	b082      	sub	sp, #8
20001b78:	f8c4 3084 	str.w	r3, [r4, #132]	@ 0x84
20001b7c:	f7ff ff76 	bl	20001a6c <xosc_init>
20001b80:	2201      	movs	r2, #1
20001b82:	4b29      	ldr	r3, [pc, #164]	@ (20001c28 <runtime_init_clocks+0xb8>)
20001b84:	63da      	str	r2, [r3, #60]	@ 0x3c
20001b86:	6c63      	ldr	r3, [r4, #68]	@ 0x44
20001b88:	2b01      	cmp	r3, #1
20001b8a:	d1fc      	bne.n	20001b86 <runtime_init_clocks+0x16>
20001b8c:	2103      	movs	r1, #3
20001b8e:	4a26      	ldr	r2, [pc, #152]	@ (20001c28 <runtime_init_clocks+0xb8>)
20001b90:	4b24      	ldr	r3, [pc, #144]	@ (20001c24 <runtime_init_clocks+0xb4>)
20001b92:	6311      	str	r1, [r2, #48]	@ 0x30
20001b94:	6b9c      	ldr	r4, [r3, #56]	@ 0x38
20001b96:	2c01      	cmp	r4, #1
20001b98:	d1fc      	bne.n	20001b94 <runtime_init_clocks+0x24>
20001b9a:	2602      	movs	r6, #2
20001b9c:	2505      	movs	r5, #5
20001b9e:	4621      	mov	r1, r4
20001ba0:	2305      	movs	r3, #5
20001ba2:	4a22      	ldr	r2, [pc, #136]	@ (20001c2c <runtime_init_clocks+0xbc>)
20001ba4:	4822      	ldr	r0, [pc, #136]	@ (20001c30 <runtime_init_clocks+0xc0>)
20001ba6:	9600      	str	r6, [sp, #0]
20001ba8:	f7ff feea 	bl	20001980 <pll_init>
20001bac:	4621      	mov	r1, r4
20001bae:	462b      	mov	r3, r5
20001bb0:	4a20      	ldr	r2, [pc, #128]	@ (20001c34 <runtime_init_clocks+0xc4>)
20001bb2:	4821      	ldr	r0, [pc, #132]	@ (20001c38 <runtime_init_clocks+0xc8>)
20001bb4:	9500      	str	r5, [sp, #0]
20001bb6:	f7ff fee3 	bl	20001980 <pll_init>
20001bba:	2200      	movs	r2, #0
20001bbc:	2004      	movs	r0, #4
20001bbe:	4631      	mov	r1, r6
20001bc0:	4b1e      	ldr	r3, [pc, #120]	@ (20001c3c <runtime_init_clocks+0xcc>)
20001bc2:	f7ff fe6f 	bl	200018a4 <clock_configure_undivided>
20001bc6:	4621      	mov	r1, r4
20001bc8:	4628      	mov	r0, r5
20001bca:	2200      	movs	r2, #0
20001bcc:	4b1c      	ldr	r3, [pc, #112]	@ (20001c40 <runtime_init_clocks+0xd0>)
20001bce:	f7ff fe69 	bl	200018a4 <clock_configure_undivided>
20001bd2:	2200      	movs	r2, #0
20001bd4:	2008      	movs	r0, #8
20001bd6:	4611      	mov	r1, r2
20001bd8:	4b1a      	ldr	r3, [pc, #104]	@ (20001c44 <runtime_init_clocks+0xd4>)
20001bda:	f7ff fe63 	bl	200018a4 <clock_configure_undivided>
20001bde:	2200      	movs	r2, #0
20001be0:	2009      	movs	r0, #9
20001be2:	4611      	mov	r1, r2
20001be4:	4b17      	ldr	r3, [pc, #92]	@ (20001c44 <runtime_init_clocks+0xd4>)
20001be6:	f7ff fe5d 	bl	200018a4 <clock_configure_undivided>
20001bea:	2200      	movs	r2, #0
20001bec:	2006      	movs	r0, #6
20001bee:	4611      	mov	r1, r2
20001bf0:	4b13      	ldr	r3, [pc, #76]	@ (20001c40 <runtime_init_clocks+0xd0>)
20001bf2:	f7ff fe57 	bl	200018a4 <clock_configure_undivided>
20001bf6:	2200      	movs	r2, #0
20001bf8:	4b11      	ldr	r3, [pc, #68]	@ (20001c40 <runtime_init_clocks+0xd0>)
20001bfa:	2007      	movs	r0, #7
20001bfc:	4611      	mov	r1, r2
20001bfe:	f7ff fe51 	bl	200018a4 <clock_configure_undivided>
20001c02:	2004      	movs	r0, #4
20001c04:	f7ff feb6 	bl	20001974 <clock_get_hz>
20001c08:	2400      	movs	r4, #0
20001c0a:	4b0f      	ldr	r3, [pc, #60]	@ (20001c48 <runtime_init_clocks+0xd8>)
20001c0c:	fba3 3500 	umull	r3, r5, r3, r0
20001c10:	0cad      	lsrs	r5, r5, #18
20001c12:	b2e0      	uxtb	r0, r4
20001c14:	4629      	mov	r1, r5
20001c16:	3401      	adds	r4, #1
20001c18:	f7ff fef8 	bl	20001a0c <tick_start>
20001c1c:	2c06      	cmp	r4, #6
20001c1e:	d1f8      	bne.n	20001c12 <runtime_init_clocks+0xa2>
20001c20:	b002      	add	sp, #8
20001c22:	bd70      	pop	{r4, r5, r6, pc}
20001c24:	40010000 	.word	0x40010000
20001c28:	40013000 	.word	0x40013000
20001c2c:	59682f00 	.word	0x59682f00
20001c30:	40050000 	.word	0x40050000
20001c34:	47868c00 	.word	0x47868c00
20001c38:	40058000 	.word	0x40058000
20001c3c:	00b71b00 	.word	0x00b71b00
20001c40:	08f0d180 	.word	0x08f0d180
20001c44:	02dc6c00 	.word	0x02dc6c00
20001c48:	431bde83 	.word	0x431bde83

20001c4c <generic_save_state>:
20001c4c:	b086      	sub	sp, #24
20001c4e:	b403      	push	{r0, r1}
20001c50:	fc51 0408 	dcp_pxmd r0, r1
20001c54:	e9cd 0102 	strd	r0, r1, [sp, #8]
20001c58:	fc51 0409 	dcp_pymd r0, r1
20001c5c:	e9cd 0104 	strd	r0, r1, [sp, #16]
20001c60:	ec51 040a 	dcp_refd r0, r1
20001c64:	e9cd 0106 	strd	r0, r1, [sp, #24]
20001c68:	bc03      	pop	{r0, r1}
20001c6a:	47f0      	blx	lr

20001c6c <generic_restore_state>:
20001c6c:	e8bd 5000 	ldmia.w	sp!, {ip, lr}
20001c70:	ec4e c400 	dcp_wxmd ip, lr
20001c74:	e8bd 5000 	ldmia.w	sp!, {ip, lr}
20001c78:	ec4e c401 	dcp_wymd ip, lr
20001c7c:	e8bd 5000 	ldmia.w	sp!, {ip, lr}
20001c80:	ec4e c402 	dcp_wefd ip, lr
20001c84:	bd00      	pop	{pc}
20001c86:	0000      	movs	r0, r0
20001c88:	b500      	push	{lr}
20001c8a:	f7ff ffdf 	bl	20001c4c <generic_save_state>
20001c8e:	e002      	b.n	20001c96 <__wrap___aeabi_dadd+0x6>

20001c90 <__wrap___aeabi_dadd>:
20001c90:	fe10 f430 	dcp_pcmp APSR_nzcv
20001c94:	d4f8      	bmi.n	20001c88 <generic_restore_state+0x1c>
20001c96:	ec41 0410 	dcp_wxup r0, r1
20001c9a:	ec43 2411 	dcp_wyup r2, r3
20001c9e:	ee00 0401 			dcp_add0
20001ca2:	ee10 0401 			dcp_add1
20001ca6:	ee80 0420 			dcp_nrdd
20001caa:	ec51 0410 	dcp_rdda r0, r1
20001cae:	4770      	bx	lr
20001cb0:	b500      	push	{lr}
20001cb2:	f7ff ffcb 	bl	20001c4c <generic_save_state>
20001cb6:	e002      	b.n	20001cbe <__wrap___aeabi_dsub+0x6>

20001cb8 <__wrap___aeabi_dsub>:
20001cb8:	fe10 f430 	dcp_pcmp APSR_nzcv
20001cbc:	d4f8      	bmi.n	20001cb0 <__wrap___aeabi_dadd+0x20>
20001cbe:	ec41 0410 	dcp_wxup r0, r1
20001cc2:	ec43 2411 	dcp_wyup r2, r3
20001cc6:	ee00 0401 			dcp_add0
20001cca:	ee10 0421 			dcp_sub1
20001cce:	ee80 0420 			dcp_nrdd
20001cd2:	ec51 0430 	dcp_rdds r0, r1
20001cd6:	4770      	bx	lr
20001cd8:	b500      	push	{lr}
20001cda:	f7ff ffb7 	bl	20001c4c <generic_save_state>
20001cde:	e002      	b.n	20001ce6 <__wrap___aeabi_dmul+0x6>

20001ce0 <__wrap___aeabi_dmul>:
20001ce0:	fe10 f430 	dcp_pcmp APSR_nzcv
20001ce4:	d4f8      	bmi.n	20001cd8 <__wrap___aeabi_dsub+0x20>
20001ce6:	b510      	push	{r4, lr}
20001ce8:	ec41 0410 	dcp_wxup r0, r1
20001cec:	ec43 2411 	dcp_wyup r2, r3
20001cf0:	ec51 0404 	dcp_rxms r0, r1, #0x0
20001cf4:	ec53 2405 	dcp_ryms r2, r3, #0x0
20001cf8:	fba0 4c02 	umull	r4, ip, r0, r2
20001cfc:	f05f 0e00 	movs.w	lr, #0
20001d00:	fbe0 ce03 	umlal	ip, lr, r0, r3
20001d04:	fbe1 ce02 	umlal	ip, lr, r1, r2
20001d08:	ec4c 4420 	dcp_wxms r4, ip
20001d0c:	2400      	movs	r4, #0
20001d0e:	fbe1 e403 	umlal	lr, r4, r1, r3
20001d12:	ec44 e430 	dcp_wxmo lr, r4
20001d16:	ee80 0420 			dcp_nrdd
20001d1a:	ec51 0450 	dcp_rddm r0, r1
20001d1e:	e8bd 4010 	ldmia.w	sp!, {r4, lr}
20001d22:	4770      	bx	lr
20001d24:	b500      	push	{lr}
20001d26:	f7ff ff91 	bl	20001c4c <generic_save_state>
20001d2a:	e002      	b.n	20001d32 <__wrap___aeabi_ddiv+0x6>

20001d2c <__wrap___aeabi_ddiv>:
20001d2c:	fe10 f430 	dcp_pcmp APSR_nzcv
20001d30:	d4f8      	bmi.n	20001d24 <__wrap___aeabi_dmul+0x44>
20001d32:	ec41 0410 	dcp_wxup r0, r1
20001d36:	ec43 2411 	dcp_wyup r2, r3
20001d3a:	ec51 0421 	dcp_rymr r0, r1
20001d3e:	fba0 1201 	umull	r1, r2, r0, r1
20001d42:	ea6f 0282 	mvn.w	r2, r2, lsl #2
20001d46:	fb52 0010 	smmlar	r0, r2, r0, r0
20001d4a:	fb52 f212 	smmulr	r2, r2, r2
20001d4e:	fb52 0010 	smmlar	r0, r2, r0, r0
20001d52:	eba0 7cd0 	sub.w	ip, r0, r0, lsr #31
20001d56:	ec53 2404 	dcp_rxms r2, r3, #0x0
20001d5a:	fb5c f113 	smmulr	r1, ip, r3
20001d5e:	ec53 2415 	dcp_ryms r2, r3, #0x1
20001d62:	fba1 2002 	umull	r2, r0, r1, r2
20001d66:	fb01 0003 	mla	r0, r1, r3, r0
20001d6a:	ec53 2444 	dcp_rxms r2, r3, #0x4
20001d6e:	eba2 0000 	sub.w	r0, r2, r0
20001d72:	fb50 f21c 	smmulr	r2, r0, ip
20001d76:	ea4f 1311 	mov.w	r3, r1, lsr #4
20001d7a:	eb12 7001 	adds.w	r0, r2, r1, lsl #28
20001d7e:	eb43 71e2 	adc.w	r1, r3, r2, asr #31
20001d82:	ea40 5051 	orr.w	r0, r0, r1, lsr #21
20001d86:	ea20 5091 	bic.w	r0, r0, r1, lsr #22
20001d8a:	f020 0007 	bic.w	r0, r0, #7
20001d8e:	ec53 2475 	dcp_ryms r2, r3, #0x7
20001d92:	fba0 3c02 	umull	r3, ip, r0, r2
20001d96:	ec53 2475 	dcp_ryms r2, r3, #0x7
20001d9a:	fb00 cc03 	mla	ip, r0, r3, ip
20001d9e:	fb01 cc02 	mla	ip, r1, r2, ip
20001da2:	ec53 2404 	dcp_rxms r2, r3, #0x0
20001da6:	ebac 4c82 	sub.w	ip, ip, r2, lsl #18
20001daa:	ea40 705c 	orr.w	r0, r0, ip, lsr #29
20001dae:	f1a0 0001 	sub.w	r0, r0, #1
20001db2:	ec41 0440 	dcp_wxdd r0, r1
20001db6:	ee80 0420 			dcp_nrdd
20001dba:	ec51 0470 	dcp_rddd r0, r1
20001dbe:	4770      	bx	lr
20001dc0:	b500      	push	{lr}
20001dc2:	f7ff ff43 	bl	20001c4c <generic_save_state>
20001dc6:	e002      	b.n	20001dce <__wrap___aeabi_i2d+0x6>

20001dc8 <__wrap___aeabi_i2d>:
20001dc8:	fe10 f430 	dcp_pcmp APSR_nzcv
20001dcc:	d4f8      	bmi.n	20001dc0 <__wrap___aeabi_ddiv+0x94>
20001dce:	ec40 0470 	dcp_wxic r0, r0
20001dd2:	ee00 0401 			dcp_add0
20001dd6:	ee10 0421 			dcp_sub1
20001dda:	ee80 0420 			dcp_nrdd
20001dde:	ec51 0430 	dcp_rdds r0, r1
20001de2:	4770      	bx	lr
20001de4:	b500      	push	{lr}
20001de6:	f7ff ff31 	bl	20001c4c <generic_save_state>
20001dea:	e002      	b.n	20001df2 <__wrap___aeabi_ui2d+0x6>

20001dec <__wrap___aeabi_ui2d>:
20001dec:	fe10 f430 	dcp_pcmp APSR_nzcv
20001df0:	d4f8      	bmi.n	20001de4 <__wrap___aeabi_i2d+0x1c>
20001df2:	ec40 0460 	dcp_wxuc r0, r0
20001df6:	ee00 0401 			dcp_add0
20001dfa:	ee10 0421 			dcp_sub1
20001dfe:	ee80 0420 			dcp_nrdd
20001e02:	ec51 0430 	dcp_rdds r0, r1
20001e06:	4770      	bx	lr
20001e08:	b500      	push	{lr}
20001e0a:	f7ff ff1f 	bl	20001c4c <generic_save_state>
20001e0e:	e002      	b.n	20001e16 <double2int_z_entry>

20001e10 <__wrap___aeabi_d2iz>:
20001e10:	fe10 f430 	dcp_pcmp APSR_nzcv
20001e14:	d4f8      	bmi.n	20001e08 <__wrap___aeabi_ui2d+0x1c>

20001e16 <double2int_z_entry>:
20001e16:	ec41 0480 	dcp_wxdc r0, r1
20001e1a:	ee00 0401 			dcp_add0
20001e1e:	ee10 0401 			dcp_add1
20001e22:	ee80 0440 			dcp_ntdc
20001e26:	ee10 0413 			dcp_rdic r0
20001e2a:	4770      	bx	lr
20001e2c:	b500      	push	{lr}
20001e2e:	f7ff ff0d 	bl	20001c4c <generic_save_state>
20001e32:	e002      	b.n	20001e3a <double2uint_z_entry>

20001e34 <__wrap___aeabi_d2uiz>:
20001e34:	fe10 f430 	dcp_pcmp APSR_nzcv
20001e38:	d4f8      	bmi.n	20001e2c <double2int_z_entry+0x16>

20001e3a <double2uint_z_entry>:
20001e3a:	ec41 0480 	dcp_wxdc r0, r1
20001e3e:	ee00 0401 			dcp_add0
20001e42:	ee10 0401 			dcp_add1
20001e46:	ee80 0440 			dcp_ntdc
20001e4a:	ee10 0433 			dcp_rduc r0
20001e4e:	4770      	bx	lr
20001e50:	b500      	push	{lr}
20001e52:	f7ff fefb 	bl	20001c4c <generic_save_state>
20001e56:	e002      	b.n	20001e5e <__wrap___aeabi_dcmpun+0x6>

20001e58 <__wrap___aeabi_dcmpun>:
20001e58:	fe10 f430 	dcp_pcmp APSR_nzcv
20001e5c:	d4f8      	bmi.n	20001e50 <double2uint_z_entry+0x16>
20001e5e:	ec41 0410 	dcp_wxup r0, r1
20001e62:	ec43 2411 	dcp_wyup r2, r3
20001e66:	ee00 0401 			dcp_add0
20001e6a:	ee10 0430 			dcp_rcmp r0
20001e6e:	f3c0 7000 	ubfx	r0, r0, #28, #1
20001e72:	4770      	bx	lr
20001e74:	b500      	push	{lr}
20001e76:	f7ff fee9 	bl	20001c4c <generic_save_state>
20001e7a:	e002      	b.n	20001e82 <__wrap___aeabi_dcmplt+0x6>

20001e7c <__wrap___aeabi_dcmplt>:
20001e7c:	fe10 f430 	dcp_pcmp APSR_nzcv
20001e80:	d4f8      	bmi.n	20001e74 <__wrap___aeabi_dcmpun+0x1c>
20001e82:	ec43 2410 	dcp_wxup r2, r3
20001e86:	ec41 0411 	dcp_wyup r0, r1
20001e8a:	ee00 0401 			dcp_add0
20001e8e:	ee10 f430 			dcp_rcmp APSR_nzcv
20001e92:	bf8c      	ite	hi
20001e94:	2001      	movhi	r0, #1
20001e96:	2000      	movls	r0, #0
20001e98:	4770      	bx	lr
20001e9a:	bf00      	nop
20001e9c:	b500      	push	{lr}
20001e9e:	f7ff fed5 	bl	20001c4c <generic_save_state>
20001ea2:	e002      	b.n	20001eaa <__wrap___aeabi_dcmple+0x6>

20001ea4 <__wrap___aeabi_dcmple>:
20001ea4:	fe10 f430 	dcp_pcmp APSR_nzcv
20001ea8:	d4f8      	bmi.n	20001e9c <__wrap___aeabi_dcmplt+0x20>
20001eaa:	ec43 2410 	dcp_wxup r2, r3
20001eae:	ec41 0411 	dcp_wyup r0, r1
20001eb2:	ee00 0401 			dcp_add0
20001eb6:	ee10 f430 			dcp_rcmp APSR_nzcv
20001eba:	bf2c      	ite	cs
20001ebc:	2001      	movcs	r0, #1
20001ebe:	2000      	movcc	r0, #0
20001ec0:	4770      	bx	lr
20001ec2:	bf00      	nop
20001ec4:	b500      	push	{lr}
20001ec6:	f7ff fec1 	bl	20001c4c <generic_save_state>
20001eca:	e002      	b.n	20001ed2 <__wrap___aeabi_dcmpge+0x6>

20001ecc <__wrap___aeabi_dcmpge>:
20001ecc:	fe10 f430 	dcp_pcmp APSR_nzcv
20001ed0:	d4f8      	bmi.n	20001ec4 <__wrap___aeabi_dcmple+0x20>
20001ed2:	ec41 0410 	dcp_wxup r0, r1
20001ed6:	ec43 2411 	dcp_wyup r2, r3
20001eda:	ee00 0401 			dcp_add0
20001ede:	ee10 f430 			dcp_rcmp APSR_nzcv
20001ee2:	bf2c      	ite	cs
20001ee4:	2001      	movcs	r0, #1
20001ee6:	2000      	movcc	r0, #0
20001ee8:	4770      	bx	lr
20001eea:	bf00      	nop
20001eec:	b500      	push	{lr}
20001eee:	f7ff fead 	bl	20001c4c <generic_save_state>
20001ef2:	e002      	b.n	20001efa <__wrap___aeabi_dcmpgt+0x6>

20001ef4 <__wrap___aeabi_dcmpgt>:
20001ef4:	fe10 f430 	dcp_pcmp APSR_nzcv
20001ef8:	d4f8      	bmi.n	20001eec <__wrap___aeabi_dcmpge+0x20>
20001efa:	ec41 0410 	dcp_wxup r0, r1
20001efe:	ec43 2411 	dcp_wyup r2, r3
20001f02:	ee00 0401 			dcp_add0
20001f06:	ee10 f430 			dcp_rcmp APSR_nzcv
20001f0a:	bf8c      	ite	hi
20001f0c:	2001      	movhi	r0, #1
20001f0e:	2000      	movls	r0, #0
20001f10:	4770      	bx	lr
20001f12:	bf00      	nop

20001f14 <_out_null>:
20001f14:	4770      	bx	lr
20001f16:	bf00      	nop

20001f18 <_out_rev>:
20001f18:	e92d 4ff0 	stmdb	sp!, {r4, r5, r6, r7, r8, r9, sl, fp, lr}
20001f1c:	b083      	sub	sp, #12
20001f1e:	4699      	mov	r9, r3
20001f20:	e9dd ab0d 	ldrd	sl, fp, [sp, #52]	@ 0x34
20001f24:	9b0f      	ldr	r3, [sp, #60]	@ 0x3c
20001f26:	4688      	mov	r8, r1
20001f28:	4611      	mov	r1, r2
20001f2a:	079a      	lsls	r2, r3, #30
20001f2c:	4607      	mov	r7, r0
20001f2e:	d116      	bne.n	20001f5e <_out_rev+0x46>
20001f30:	45da      	cmp	sl, fp
20001f32:	d23a      	bcs.n	20001faa <_out_rev+0x92>
20001f34:	460c      	mov	r4, r1
20001f36:	460d      	mov	r5, r1
20001f38:	ebab 060a 	sub.w	r6, fp, sl
20001f3c:	440e      	add	r6, r1
20001f3e:	4622      	mov	r2, r4
20001f40:	464b      	mov	r3, r9
20001f42:	4641      	mov	r1, r8
20001f44:	2020      	movs	r0, #32
20001f46:	3401      	adds	r4, #1
20001f48:	47b8      	blx	r7
20001f4a:	42b4      	cmp	r4, r6
20001f4c:	d1f7      	bne.n	20001f3e <_out_rev+0x26>
20001f4e:	4629      	mov	r1, r5
20001f50:	f1ba 0f00 	cmp.w	sl, #0
20001f54:	d108      	bne.n	20001f68 <_out_rev+0x50>
20001f56:	4620      	mov	r0, r4
20001f58:	b003      	add	sp, #12
20001f5a:	e8bd 8ff0 	ldmia.w	sp!, {r4, r5, r6, r7, r8, r9, sl, fp, pc}
20001f5e:	460c      	mov	r4, r1
20001f60:	f1ba 0f00 	cmp.w	sl, #0
20001f64:	d010      	beq.n	20001f88 <_out_rev+0x70>
20001f66:	460e      	mov	r6, r1
20001f68:	4655      	mov	r5, sl
20001f6a:	9b0c      	ldr	r3, [sp, #48]	@ 0x30
20001f6c:	442e      	add	r6, r5
20001f6e:	449a      	add	sl, r3
20001f70:	9101      	str	r1, [sp, #4]
20001f72:	1b72      	subs	r2, r6, r5
20001f74:	464b      	mov	r3, r9
20001f76:	3d01      	subs	r5, #1
20001f78:	4641      	mov	r1, r8
20001f7a:	f81a 0d01 	ldrb.w	r0, [sl, #-1]!
20001f7e:	4634      	mov	r4, r6
20001f80:	47b8      	blx	r7
20001f82:	2d00      	cmp	r5, #0
20001f84:	d1f5      	bne.n	20001f72 <_out_rev+0x5a>
20001f86:	9901      	ldr	r1, [sp, #4]
20001f88:	9b0f      	ldr	r3, [sp, #60]	@ 0x3c
20001f8a:	079b      	lsls	r3, r3, #30
20001f8c:	d5e3      	bpl.n	20001f56 <_out_rev+0x3e>
20001f8e:	1a65      	subs	r5, r4, r1
20001f90:	45ab      	cmp	fp, r5
20001f92:	d9e0      	bls.n	20001f56 <_out_rev+0x3e>
20001f94:	4622      	mov	r2, r4
20001f96:	464b      	mov	r3, r9
20001f98:	4641      	mov	r1, r8
20001f9a:	2020      	movs	r0, #32
20001f9c:	3501      	adds	r5, #1
20001f9e:	47b8      	blx	r7
20001fa0:	455d      	cmp	r5, fp
20001fa2:	f104 0401 	add.w	r4, r4, #1
20001fa6:	d3f5      	bcc.n	20001f94 <_out_rev+0x7c>
20001fa8:	e7d5      	b.n	20001f56 <_out_rev+0x3e>
20001faa:	460c      	mov	r4, r1
20001fac:	f1ba 0f00 	cmp.w	sl, #0
20001fb0:	d1d9      	bne.n	20001f66 <_out_rev+0x4e>
20001fb2:	e7d0      	b.n	20001f56 <_out_rev+0x3e>

20001fb4 <_ntoa_format>:
20001fb4:	e92d 4ff0 	stmdb	sp!, {r4, r5, r6, r7, r8, r9, sl, fp, lr}
20001fb8:	9f0f      	ldr	r7, [sp, #60]	@ 0x3c
20001fba:	f8dd 8024 	ldr.w	r8, [sp, #36]	@ 0x24
20001fbe:	f017 0f02 	tst.w	r7, #2
20001fc2:	9c0a      	ldr	r4, [sp, #40]	@ 0x28
20001fc4:	f89d a02c 	ldrb.w	sl, [sp, #44]	@ 0x2c
20001fc8:	9d0e      	ldr	r5, [sp, #56]	@ 0x38
20001fca:	e9dd 960c 	ldrd	r9, r6, [sp, #48]	@ 0x30
20001fce:	d144      	bne.n	2000205a <_ntoa_format+0xa6>
20001fd0:	bbf5      	cbnz	r5, 20002050 <_ntoa_format+0x9c>
20001fd2:	42b4      	cmp	r4, r6
20001fd4:	d241      	bcs.n	2000205a <_ntoa_format+0xa6>
20001fd6:	f007 0b01 	and.w	fp, r7, #1
20001fda:	f104 3cff 	add.w	ip, r4, #4294967295
20001fde:	f04f 0e30 	mov.w	lr, #48	@ 0x30
20001fe2:	44c4      	add	ip, r8
20001fe4:	e004      	b.n	20001ff0 <_ntoa_format+0x3c>
20001fe6:	3401      	adds	r4, #1
20001fe8:	42a6      	cmp	r6, r4
20001fea:	f80c ef01 	strb.w	lr, [ip, #1]!
20001fee:	d901      	bls.n	20001ff4 <_ntoa_format+0x40>
20001ff0:	2c20      	cmp	r4, #32
20001ff2:	d1f8      	bne.n	20001fe6 <_ntoa_format+0x32>
20001ff4:	f1bb 0f00 	cmp.w	fp, #0
20001ff8:	f000 8088 	beq.w	2000210c <_ntoa_format+0x158>
20001ffc:	42a5      	cmp	r5, r4
20001ffe:	d92c      	bls.n	2000205a <_ntoa_format+0xa6>
20002000:	f104 3cff 	add.w	ip, r4, #4294967295
20002004:	f04f 0e30 	mov.w	lr, #48	@ 0x30
20002008:	44c4      	add	ip, r8
2000200a:	e004      	b.n	20002016 <_ntoa_format+0x62>
2000200c:	3401      	adds	r4, #1
2000200e:	42ac      	cmp	r4, r5
20002010:	f80c ef01 	strb.w	lr, [ip, #1]!
20002014:	d021      	beq.n	2000205a <_ntoa_format+0xa6>
20002016:	2c20      	cmp	r4, #32
20002018:	d1f8      	bne.n	2000200c <_ntoa_format+0x58>
2000201a:	f017 0f10 	tst.w	r7, #16
2000201e:	d00e      	beq.n	2000203e <_ntoa_format+0x8a>
20002020:	f417 6f80 	tst.w	r7, #1024	@ 0x400
20002024:	d154      	bne.n	200020d0 <_ntoa_format+0x11c>
20002026:	42a6      	cmp	r6, r4
20002028:	d063      	beq.n	200020f2 <_ntoa_format+0x13e>
2000202a:	42a5      	cmp	r5, r4
2000202c:	d061      	beq.n	200020f2 <_ntoa_format+0x13e>
2000202e:	f1b9 0f10 	cmp.w	r9, #16
20002032:	d050      	beq.n	200020d6 <_ntoa_format+0x122>
20002034:	f1b9 0f02 	cmp.w	r9, #2
20002038:	d056      	beq.n	200020e8 <_ntoa_format+0x134>
2000203a:	2c20      	cmp	r4, #32
2000203c:	d129      	bne.n	20002092 <_ntoa_format+0xde>
2000203e:	2420      	movs	r4, #32
20002040:	e9cd 570b 	strd	r5, r7, [sp, #44]	@ 0x2c
20002044:	e9cd 8409 	strd	r8, r4, [sp, #36]	@ 0x24
20002048:	e8bd 4ff0 	ldmia.w	sp!, {r4, r5, r6, r7, r8, r9, sl, fp, lr}
2000204c:	f7ff bf64 	b.w	20001f18 <_out_rev>
20002050:	f017 0b01 	ands.w	fp, r7, #1
20002054:	d134      	bne.n	200020c0 <_ntoa_format+0x10c>
20002056:	42b4      	cmp	r4, r6
20002058:	d3bf      	bcc.n	20001fda <_ntoa_format+0x26>
2000205a:	f017 0f10 	tst.w	r7, #16
2000205e:	d01e      	beq.n	2000209e <_ntoa_format+0xea>
20002060:	f417 6f80 	tst.w	r7, #1024	@ 0x400
20002064:	d1e3      	bne.n	2000202e <_ntoa_format+0x7a>
20002066:	2c00      	cmp	r4, #0
20002068:	d1dd      	bne.n	20002026 <_ntoa_format+0x72>
2000206a:	f1b9 0f10 	cmp.w	r9, #16
2000206e:	d063      	beq.n	20002138 <_ntoa_format+0x184>
20002070:	f1b9 0f02 	cmp.w	r9, #2
20002074:	d077      	beq.n	20002166 <_ntoa_format+0x1b2>
20002076:	2430      	movs	r4, #48	@ 0x30
20002078:	f888 4000 	strb.w	r4, [r8]
2000207c:	2401      	movs	r4, #1
2000207e:	f1ba 0f00 	cmp.w	sl, #0
20002082:	d111      	bne.n	200020a8 <_ntoa_format+0xf4>
20002084:	077e      	lsls	r6, r7, #29
20002086:	d548      	bpl.n	2000211a <_ntoa_format+0x166>
20002088:	262b      	movs	r6, #43	@ 0x2b
2000208a:	f808 6004 	strb.w	r6, [r8, r4]
2000208e:	3401      	adds	r4, #1
20002090:	e7d6      	b.n	20002040 <_ntoa_format+0x8c>
20002092:	4626      	mov	r6, r4
20002094:	3401      	adds	r4, #1
20002096:	f04f 0c30 	mov.w	ip, #48	@ 0x30
2000209a:	f808 c006 	strb.w	ip, [r8, r6]
2000209e:	2c20      	cmp	r4, #32
200020a0:	d0cd      	beq.n	2000203e <_ntoa_format+0x8a>
200020a2:	f1ba 0f00 	cmp.w	sl, #0
200020a6:	d0ed      	beq.n	20002084 <_ntoa_format+0xd0>
200020a8:	262d      	movs	r6, #45	@ 0x2d
200020aa:	f808 6004 	strb.w	r6, [r8, r4]
200020ae:	3401      	adds	r4, #1
200020b0:	e9cd 570b 	strd	r5, r7, [sp, #44]	@ 0x2c
200020b4:	e9cd 8409 	strd	r8, r4, [sp, #36]	@ 0x24
200020b8:	e8bd 4ff0 	ldmia.w	sp!, {r4, r5, r6, r7, r8, r9, sl, fp, lr}
200020bc:	f7ff bf2c 	b.w	20001f18 <_out_rev>
200020c0:	f1ba 0f00 	cmp.w	sl, #0
200020c4:	d030      	beq.n	20002128 <_ntoa_format+0x174>
200020c6:	42b4      	cmp	r4, r6
200020c8:	f105 35ff 	add.w	r5, r5, #4294967295
200020cc:	d385      	bcc.n	20001fda <_ntoa_format+0x26>
200020ce:	e795      	b.n	20001ffc <_ntoa_format+0x48>
200020d0:	f1b9 0f10 	cmp.w	r9, #16
200020d4:	d1b3      	bne.n	2000203e <_ntoa_format+0x8a>
200020d6:	06be      	lsls	r6, r7, #26
200020d8:	d53b      	bpl.n	20002152 <_ntoa_format+0x19e>
200020da:	2c20      	cmp	r4, #32
200020dc:	d0af      	beq.n	2000203e <_ntoa_format+0x8a>
200020de:	2658      	movs	r6, #88	@ 0x58
200020e0:	f808 6004 	strb.w	r6, [r8, r4]
200020e4:	3401      	adds	r4, #1
200020e6:	e7a8      	b.n	2000203a <_ntoa_format+0x86>
200020e8:	2c20      	cmp	r4, #32
200020ea:	d0a8      	beq.n	2000203e <_ntoa_format+0x8a>
200020ec:	4626      	mov	r6, r4
200020ee:	3401      	adds	r4, #1
200020f0:	e007      	b.n	20002102 <_ntoa_format+0x14e>
200020f2:	1e66      	subs	r6, r4, #1
200020f4:	d0b9      	beq.n	2000206a <_ntoa_format+0xb6>
200020f6:	f1b9 0f10 	cmp.w	r9, #16
200020fa:	d036      	beq.n	2000216a <_ntoa_format+0x1b6>
200020fc:	f1b9 0f02 	cmp.w	r9, #2
20002100:	d1c9      	bne.n	20002096 <_ntoa_format+0xe2>
20002102:	f04f 0c62 	mov.w	ip, #98	@ 0x62
20002106:	f808 c006 	strb.w	ip, [r8, r6]
2000210a:	e796      	b.n	2000203a <_ntoa_format+0x86>
2000210c:	f017 0f10 	tst.w	r7, #16
20002110:	d0c5      	beq.n	2000209e <_ntoa_format+0xea>
20002112:	f417 6f80 	tst.w	r7, #1024	@ 0x400
20002116:	d086      	beq.n	20002026 <_ntoa_format+0x72>
20002118:	e789      	b.n	2000202e <_ntoa_format+0x7a>
2000211a:	073e      	lsls	r6, r7, #28
2000211c:	d590      	bpl.n	20002040 <_ntoa_format+0x8c>
2000211e:	2620      	movs	r6, #32
20002120:	f808 6004 	strb.w	r6, [r8, r4]
20002124:	3401      	adds	r4, #1
20002126:	e78b      	b.n	20002040 <_ntoa_format+0x8c>
20002128:	f017 0f0c 	tst.w	r7, #12
2000212c:	d000      	beq.n	20002130 <_ntoa_format+0x17c>
2000212e:	3d01      	subs	r5, #1
20002130:	42b4      	cmp	r4, r6
20002132:	f4ff af52 	bcc.w	20001fda <_ntoa_format+0x26>
20002136:	e761      	b.n	20001ffc <_ntoa_format+0x48>
20002138:	06bc      	lsls	r4, r7, #26
2000213a:	d412      	bmi.n	20002162 <_ntoa_format+0x1ae>
2000213c:	2478      	movs	r4, #120	@ 0x78
2000213e:	f888 4000 	strb.w	r4, [r8]
20002142:	2430      	movs	r4, #48	@ 0x30
20002144:	f888 4001 	strb.w	r4, [r8, #1]
20002148:	2402      	movs	r4, #2
2000214a:	f1ba 0f00 	cmp.w	sl, #0
2000214e:	d099      	beq.n	20002084 <_ntoa_format+0xd0>
20002150:	e7aa      	b.n	200020a8 <_ntoa_format+0xf4>
20002152:	2c20      	cmp	r4, #32
20002154:	f43f af73 	beq.w	2000203e <_ntoa_format+0x8a>
20002158:	2678      	movs	r6, #120	@ 0x78
2000215a:	f808 6004 	strb.w	r6, [r8, r4]
2000215e:	3401      	adds	r4, #1
20002160:	e76b      	b.n	2000203a <_ntoa_format+0x86>
20002162:	2458      	movs	r4, #88	@ 0x58
20002164:	e7eb      	b.n	2000213e <_ntoa_format+0x18a>
20002166:	2462      	movs	r4, #98	@ 0x62
20002168:	e7e9      	b.n	2000213e <_ntoa_format+0x18a>
2000216a:	f017 0f20 	tst.w	r7, #32
2000216e:	f1a4 0c02 	sub.w	ip, r4, #2
20002172:	d004      	beq.n	2000217e <_ntoa_format+0x1ca>
20002174:	f04f 0e58 	mov.w	lr, #88	@ 0x58
20002178:	f808 e00c 	strb.w	lr, [r8, ip]
2000217c:	e78b      	b.n	20002096 <_ntoa_format+0xe2>
2000217e:	f04f 0e78 	mov.w	lr, #120	@ 0x78
20002182:	f808 e00c 	strb.w	lr, [r8, ip]
20002186:	e786      	b.n	20002096 <_ntoa_format+0xe2>

20002188 <_out_char>:
20002188:	b900      	cbnz	r0, 2000218c <_out_char+0x4>
2000218a:	4770      	bx	lr
2000218c:	f001 bb5a 	b.w	20003844 <__wrap_putchar>

20002190 <_out_fct>:
20002190:	b110      	cbz	r0, 20002198 <_out_fct+0x8>
20002192:	e9d1 3100 	ldrd	r3, r1, [r1]
20002196:	4718      	bx	r3
20002198:	4770      	bx	lr
2000219a:	bf00      	nop
2000219c:	0000      	movs	r0, r0
	...

200021a0 <_ftoa>:
200021a0:	e92d 4ff0 	stmdb	sp!, {r4, r5, r6, r7, r8, r9, sl, fp, lr}
200021a4:	b097      	sub	sp, #92	@ 0x5c
200021a6:	ed9d 7b20 	vldr	d7, [sp, #128]	@ 0x80
200021aa:	e9dd 5b22 	ldrd	r5, fp, [sp, #136]	@ 0x88
200021ae:	4607      	mov	r7, r0
200021b0:	4688      	mov	r8, r1
200021b2:	ec51 0b17 	vmov	r0, r1, d7
200021b6:	9c24      	ldr	r4, [sp, #144]	@ 0x90
200021b8:	4699      	mov	r9, r3
200021ba:	920c      	str	r2, [sp, #48]	@ 0x30
200021bc:	460b      	mov	r3, r1
200021be:	4602      	mov	r2, r0
200021c0:	ed8d 7b04 	vstr	d7, [sp, #16]
200021c4:	9407      	str	r4, [sp, #28]
200021c6:	f7ff fe47 	bl	20001e58 <__wrap___aeabi_dcmpun>
200021ca:	2800      	cmp	r0, #0
200021cc:	f040 81f4 	bne.w	200025b8 <_ftoa+0x418>
200021d0:	e9dd 0104 	ldrd	r0, r1, [sp, #16]
200021d4:	f04f 32ff 	mov.w	r2, #4294967295
200021d8:	f46f 1380 	mvn.w	r3, #1048576	@ 0x100000
200021dc:	f7ff fe4e 	bl	20001e7c <__wrap___aeabi_dcmplt>
200021e0:	2800      	cmp	r0, #0
200021e2:	f040 811b 	bne.w	2000241c <_ftoa+0x27c>
200021e6:	e9dd 0104 	ldrd	r0, r1, [sp, #16]
200021ea:	f04f 32ff 	mov.w	r2, #4294967295
200021ee:	4bac      	ldr	r3, [pc, #688]	@ (200024a0 <_ftoa+0x300>)
200021f0:	f7ff fe80 	bl	20001ef4 <__wrap___aeabi_dcmpgt>
200021f4:	2800      	cmp	r0, #0
200021f6:	f040 80ee 	bne.w	200023d6 <_ftoa+0x236>
200021fa:	e9dd 0104 	ldrd	r0, r1, [sp, #16]
200021fe:	a3a4      	add	r3, pc, #656	@ (adr r3, 20002490 <_ftoa+0x2f0>)
20002200:	e9d3 2300 	ldrd	r2, r3, [r3]
20002204:	f7ff fe76 	bl	20001ef4 <__wrap___aeabi_dcmpgt>
20002208:	2800      	cmp	r0, #0
2000220a:	f040 80d3 	bne.w	200023b4 <_ftoa+0x214>
2000220e:	e9dd 0104 	ldrd	r0, r1, [sp, #16]
20002212:	a3a1      	add	r3, pc, #644	@ (adr r3, 20002498 <_ftoa+0x2f8>)
20002214:	e9d3 2300 	ldrd	r2, r3, [r3]
20002218:	f7ff fe30 	bl	20001e7c <__wrap___aeabi_dcmplt>
2000221c:	2800      	cmp	r0, #0
2000221e:	f040 80c9 	bne.w	200023b4 <_ftoa+0x214>
20002222:	e9dd 0104 	ldrd	r0, r1, [sp, #16]
20002226:	2200      	movs	r2, #0
20002228:	2300      	movs	r3, #0
2000222a:	f7ff fe27 	bl	20001e7c <__wrap___aeabi_dcmplt>
2000222e:	2800      	cmp	r0, #0
20002230:	f040 80e8 	bne.w	20002404 <_ftoa+0x264>
20002234:	4623      	mov	r3, r4
20002236:	900d      	str	r0, [sp, #52]	@ 0x34
20002238:	f413 6f80 	tst.w	r3, #1024	@ 0x400
2000223c:	bf08      	it	eq
2000223e:	2506      	moveq	r5, #6
20002240:	2130      	movs	r1, #48	@ 0x30
20002242:	462b      	mov	r3, r5
20002244:	aa0e      	add	r2, sp, #56	@ 0x38
20002246:	f1a5 0620 	sub.w	r6, r5, #32
2000224a:	e005      	b.n	20002258 <_ftoa+0xb8>
2000224c:	3b01      	subs	r3, #1
2000224e:	42b3      	cmp	r3, r6
20002250:	f802 1b01 	strb.w	r1, [r2], #1
20002254:	f000 8193 	beq.w	2000257e <_ftoa+0x3de>
20002258:	2b09      	cmp	r3, #9
2000225a:	d8f7      	bhi.n	2000224c <_ftoa+0xac>
2000225c:	461e      	mov	r6, r3
2000225e:	1aed      	subs	r5, r5, r3
20002260:	e9dd 0104 	ldrd	r0, r1, [sp, #16]
20002264:	f7ff fdd4 	bl	20001e10 <__wrap___aeabi_d2iz>
20002268:	4b8e      	ldr	r3, [pc, #568]	@ (200024a4 <_ftoa+0x304>)
2000226a:	4604      	mov	r4, r0
2000226c:	eb03 03c6 	add.w	r3, r3, r6, lsl #3
20002270:	ed93 7b00 	vldr	d7, [r3]
20002274:	ed8d 7b08 	vstr	d7, [sp, #32]
20002278:	f7ff fda6 	bl	20001dc8 <__wrap___aeabi_i2d>
2000227c:	4602      	mov	r2, r0
2000227e:	460b      	mov	r3, r1
20002280:	e9dd 0104 	ldrd	r0, r1, [sp, #16]
20002284:	f7ff fd18 	bl	20001cb8 <__wrap___aeabi_dsub>
20002288:	e9dd 2308 	ldrd	r2, r3, [sp, #32]
2000228c:	f7ff fd28 	bl	20001ce0 <__wrap___aeabi_dmul>
20002290:	4602      	mov	r2, r0
20002292:	460b      	mov	r3, r1
20002294:	e9cd 230a 	strd	r2, r3, [sp, #40]	@ 0x28
20002298:	f7ff fdcc 	bl	20001e34 <__wrap___aeabi_d2uiz>
2000229c:	4682      	mov	sl, r0
2000229e:	f7ff fda5 	bl	20001dec <__wrap___aeabi_ui2d>
200022a2:	4602      	mov	r2, r0
200022a4:	460b      	mov	r3, r1
200022a6:	e9dd 010a 	ldrd	r0, r1, [sp, #40]	@ 0x28
200022aa:	f7ff fd05 	bl	20001cb8 <__wrap___aeabi_dsub>
200022ae:	4602      	mov	r2, r0
200022b0:	460b      	mov	r3, r1
200022b2:	e9cd 230a 	strd	r2, r3, [sp, #40]	@ 0x28
200022b6:	2200      	movs	r2, #0
200022b8:	4b7b      	ldr	r3, [pc, #492]	@ (200024a8 <_ftoa+0x308>)
200022ba:	f7ff fe1b 	bl	20001ef4 <__wrap___aeabi_dcmpgt>
200022be:	2800      	cmp	r0, #0
200022c0:	f000 80fe 	beq.w	200024c0 <_ftoa+0x320>
200022c4:	f10a 0a01 	add.w	sl, sl, #1
200022c8:	4650      	mov	r0, sl
200022ca:	f7ff fd8f 	bl	20001dec <__wrap___aeabi_ui2d>
200022ce:	4602      	mov	r2, r0
200022d0:	460b      	mov	r3, r1
200022d2:	e9dd 0108 	ldrd	r0, r1, [sp, #32]
200022d6:	f7ff fde5 	bl	20001ea4 <__wrap___aeabi_dcmple>
200022da:	b110      	cbz	r0, 200022e2 <_ftoa+0x142>
200022dc:	f04f 0a00 	mov.w	sl, #0
200022e0:	3401      	adds	r4, #1
200022e2:	2e00      	cmp	r6, #0
200022e4:	f000 80fd 	beq.w	200024e2 <_ftoa+0x342>
200022e8:	1e68      	subs	r0, r5, #1
200022ea:	ab0e      	add	r3, sp, #56	@ 0x38
200022ec:	f8df c1cc 	ldr.w	ip, [pc, #460]	@ 200024bc <_ftoa+0x31c>
200022f0:	4418      	add	r0, r3
200022f2:	e00f      	b.n	20002314 <_ftoa+0x174>
200022f4:	fbac 210a 	umull	r2, r1, ip, sl
200022f8:	08c9      	lsrs	r1, r1, #3
200022fa:	eb01 0281 	add.w	r2, r1, r1, lsl #2
200022fe:	ebaa 0242 	sub.w	r2, sl, r2, lsl #1
20002302:	3230      	adds	r2, #48	@ 0x30
20002304:	f1ba 0f09 	cmp.w	sl, #9
20002308:	f800 2f01 	strb.w	r2, [r0, #1]!
2000230c:	f240 811c 	bls.w	20002548 <_ftoa+0x3a8>
20002310:	468a      	mov	sl, r1
20002312:	461d      	mov	r5, r3
20002314:	2d20      	cmp	r5, #32
20002316:	f105 0301 	add.w	r3, r5, #1
2000231a:	f106 36ff 	add.w	r6, r6, #4294967295
2000231e:	d1e9      	bne.n	200022f4 <_ftoa+0x154>
20002320:	2520      	movs	r5, #32
20002322:	1e69      	subs	r1, r5, #1
20002324:	ab0e      	add	r3, sp, #56	@ 0x38
20002326:	4861      	ldr	r0, [pc, #388]	@ (200024ac <_ftoa+0x30c>)
20002328:	4419      	add	r1, r3
2000232a:	e010      	b.n	2000234e <_ftoa+0x1ae>
2000232c:	fb80 6204 	smull	r6, r2, r0, r4
20002330:	ebc3 03a2 	rsb	r3, r3, r2, asr #2
20002334:	eb03 0283 	add.w	r2, r3, r3, lsl #2
20002338:	eba4 0442 	sub.w	r4, r4, r2, lsl #1
2000233c:	f104 0230 	add.w	r2, r4, #48	@ 0x30
20002340:	3501      	adds	r5, #1
20002342:	461c      	mov	r4, r3
20002344:	f801 2f01 	strb.w	r2, [r1, #1]!
20002348:	2b00      	cmp	r3, #0
2000234a:	f000 80eb 	beq.w	20002524 <_ftoa+0x384>
2000234e:	2d20      	cmp	r5, #32
20002350:	ea4f 73e4 	mov.w	r3, r4, asr #31
20002354:	d1ea      	bne.n	2000232c <_ftoa+0x18c>
20002356:	9b07      	ldr	r3, [sp, #28]
20002358:	f003 0303 	and.w	r3, r3, #3
2000235c:	2b01      	cmp	r3, #1
2000235e:	d118      	bne.n	20002392 <_ftoa+0x1f2>
20002360:	f1bb 0f00 	cmp.w	fp, #0
20002364:	d015      	beq.n	20002392 <_ftoa+0x1f2>
20002366:	9b0d      	ldr	r3, [sp, #52]	@ 0x34
20002368:	2b00      	cmp	r3, #0
2000236a:	f000 810a 	beq.w	20002582 <_ftoa+0x3e2>
2000236e:	f10b 3bff 	add.w	fp, fp, #4294967295
20002372:	f1bb 0f20 	cmp.w	fp, #32
20002376:	d90c      	bls.n	20002392 <_ftoa+0x1f2>
20002378:	1e6b      	subs	r3, r5, #1
2000237a:	a90e      	add	r1, sp, #56	@ 0x38
2000237c:	2230      	movs	r2, #48	@ 0x30
2000237e:	440b      	add	r3, r1
20002380:	e005      	b.n	2000238e <_ftoa+0x1ee>
20002382:	3501      	adds	r5, #1
20002384:	455d      	cmp	r5, fp
20002386:	f803 2f01 	strb.w	r2, [r3, #1]!
2000238a:	f080 80d1 	bcs.w	20002530 <_ftoa+0x390>
2000238e:	2d20      	cmp	r5, #32
20002390:	d1f7      	bne.n	20002382 <_ftoa+0x1e2>
20002392:	9b07      	ldr	r3, [sp, #28]
20002394:	ac0e      	add	r4, sp, #56	@ 0x38
20002396:	e9cd b302 	strd	fp, r3, [sp, #8]
2000239a:	4641      	mov	r1, r8
2000239c:	464b      	mov	r3, r9
2000239e:	4638      	mov	r0, r7
200023a0:	9a0c      	ldr	r2, [sp, #48]	@ 0x30
200023a2:	9501      	str	r5, [sp, #4]
200023a4:	9400      	str	r4, [sp, #0]
200023a6:	f7ff fdb7 	bl	20001f18 <_out_rev>
200023aa:	4682      	mov	sl, r0
200023ac:	4650      	mov	r0, sl
200023ae:	b017      	add	sp, #92	@ 0x5c
200023b0:	e8bd 8ff0 	ldmia.w	sp!, {r4, r5, r6, r7, r8, r9, sl, fp, pc}
200023b4:	9b07      	ldr	r3, [sp, #28]
200023b6:	ed9d 7b04 	vldr	d7, [sp, #16]
200023ba:	e9cd b323 	strd	fp, r3, [sp, #140]	@ 0x8c
200023be:	4641      	mov	r1, r8
200023c0:	464b      	mov	r3, r9
200023c2:	4638      	mov	r0, r7
200023c4:	9a0c      	ldr	r2, [sp, #48]	@ 0x30
200023c6:	ed8d 7b20 	vstr	d7, [sp, #128]	@ 0x80
200023ca:	9522      	str	r5, [sp, #136]	@ 0x88
200023cc:	b017      	add	sp, #92	@ 0x5c
200023ce:	e8bd 4ff0 	ldmia.w	sp!, {r4, r5, r6, r7, r8, r9, sl, fp, lr}
200023d2:	f000 b945 	b.w	20002660 <_etoa>
200023d6:	0761      	lsls	r1, r4, #29
200023d8:	4623      	mov	r3, r4
200023da:	bf4c      	ite	mi
200023dc:	2304      	movmi	r3, #4
200023de:	2303      	movpl	r3, #3
200023e0:	4641      	mov	r1, r8
200023e2:	9321      	str	r3, [sp, #132]	@ 0x84
200023e4:	4638      	mov	r0, r7
200023e6:	464b      	mov	r3, r9
200023e8:	9a07      	ldr	r2, [sp, #28]
200023ea:	bf48      	it	mi
200023ec:	4c30      	ldrmi	r4, [pc, #192]	@ (200024b0 <_ftoa+0x310>)
200023ee:	e9cd b222 	strd	fp, r2, [sp, #136]	@ 0x88
200023f2:	bf58      	it	pl
200023f4:	4c2f      	ldrpl	r4, [pc, #188]	@ (200024b4 <_ftoa+0x314>)
200023f6:	9a0c      	ldr	r2, [sp, #48]	@ 0x30
200023f8:	9420      	str	r4, [sp, #128]	@ 0x80
200023fa:	b017      	add	sp, #92	@ 0x5c
200023fc:	e8bd 4ff0 	ldmia.w	sp!, {r4, r5, r6, r7, r8, r9, sl, fp, lr}
20002400:	f7ff bd8a 	b.w	20001f18 <_out_rev>
20002404:	e9dd 2304 	ldrd	r2, r3, [sp, #16]
20002408:	2000      	movs	r0, #0
2000240a:	2100      	movs	r1, #0
2000240c:	f7ff fc54 	bl	20001cb8 <__wrap___aeabi_dsub>
20002410:	2301      	movs	r3, #1
20002412:	e9cd 0104 	strd	r0, r1, [sp, #16]
20002416:	930d      	str	r3, [sp, #52]	@ 0x34
20002418:	4623      	mov	r3, r4
2000241a:	e70d      	b.n	20002238 <_ftoa+0x98>
2000241c:	4623      	mov	r3, r4
2000241e:	079c      	lsls	r4, r3, #30
20002420:	f040 80aa 	bne.w	20002578 <_ftoa+0x3d8>
20002424:	f1bb 0f04 	cmp.w	fp, #4
20002428:	f240 80a6 	bls.w	20002578 <_ftoa+0x3d8>
2000242c:	9b0c      	ldr	r3, [sp, #48]	@ 0x30
2000242e:	461d      	mov	r5, r3
20002430:	1f1c      	subs	r4, r3, #4
20002432:	eb04 0a0b 	add.w	sl, r4, fp
20002436:	462a      	mov	r2, r5
20002438:	464b      	mov	r3, r9
2000243a:	4641      	mov	r1, r8
2000243c:	2020      	movs	r0, #32
2000243e:	3501      	adds	r5, #1
20002440:	47b8      	blx	r7
20002442:	45aa      	cmp	sl, r5
20002444:	d1f7      	bne.n	20002436 <_ftoa+0x296>
20002446:	4655      	mov	r5, sl
20002448:	4c1b      	ldr	r4, [pc, #108]	@ (200024b8 <_ftoa+0x318>)
2000244a:	1f26      	subs	r6, r4, #4
2000244c:	f814 0d01 	ldrb.w	r0, [r4, #-1]!
20002450:	462a      	mov	r2, r5
20002452:	464b      	mov	r3, r9
20002454:	4641      	mov	r1, r8
20002456:	47b8      	blx	r7
20002458:	42b4      	cmp	r4, r6
2000245a:	f105 0501 	add.w	r5, r5, #1
2000245e:	d1f5      	bne.n	2000244c <_ftoa+0x2ac>
20002460:	9b07      	ldr	r3, [sp, #28]
20002462:	f10a 0a04 	add.w	sl, sl, #4
20002466:	0798      	lsls	r0, r3, #30
20002468:	d5a0      	bpl.n	200023ac <_ftoa+0x20c>
2000246a:	9c0c      	ldr	r4, [sp, #48]	@ 0x30
2000246c:	ebaa 0304 	sub.w	r3, sl, r4
20002470:	459b      	cmp	fp, r3
20002472:	d99b      	bls.n	200023ac <_ftoa+0x20c>
20002474:	4652      	mov	r2, sl
20002476:	464b      	mov	r3, r9
20002478:	4641      	mov	r1, r8
2000247a:	2020      	movs	r0, #32
2000247c:	f10a 0a01 	add.w	sl, sl, #1
20002480:	47b8      	blx	r7
20002482:	ebaa 0304 	sub.w	r3, sl, r4
20002486:	455b      	cmp	r3, fp
20002488:	d3f4      	bcc.n	20002474 <_ftoa+0x2d4>
2000248a:	e78f      	b.n	200023ac <_ftoa+0x20c>
2000248c:	f3af 8000 	nop.w
20002490:	00000000 	.word	0x00000000
20002494:	41cdcd65 	.word	0x41cdcd65
20002498:	00000000 	.word	0x00000000
2000249c:	c1cdcd65 	.word	0xc1cdcd65
200024a0:	7fefffff 	.word	0x7fefffff
200024a4:	20005258 	.word	0x20005258
200024a8:	3fe00000 	.word	0x3fe00000
200024ac:	66666667 	.word	0x66666667
200024b0:	200051fc 	.word	0x200051fc
200024b4:	20005204 	.word	0x20005204
200024b8:	20005210 	.word	0x20005210
200024bc:	cccccccd 	.word	0xcccccccd
200024c0:	2200      	movs	r2, #0
200024c2:	e9dd 010a 	ldrd	r0, r1, [sp, #40]	@ 0x28
200024c6:	4b63      	ldr	r3, [pc, #396]	@ (20002654 <_ftoa+0x4b4>)
200024c8:	f7ff fcd8 	bl	20001e7c <__wrap___aeabi_dcmplt>
200024cc:	2800      	cmp	r0, #0
200024ce:	f47f af08 	bne.w	200022e2 <_ftoa+0x142>
200024d2:	f1ba 0f00 	cmp.w	sl, #0
200024d6:	d16a      	bne.n	200025ae <_ftoa+0x40e>
200024d8:	f10a 0a01 	add.w	sl, sl, #1
200024dc:	2e00      	cmp	r6, #0
200024de:	f47f af03 	bne.w	200022e8 <_ftoa+0x148>
200024e2:	4620      	mov	r0, r4
200024e4:	f7ff fc70 	bl	20001dc8 <__wrap___aeabi_i2d>
200024e8:	4602      	mov	r2, r0
200024ea:	460b      	mov	r3, r1
200024ec:	e9dd 0104 	ldrd	r0, r1, [sp, #16]
200024f0:	f7ff fbe2 	bl	20001cb8 <__wrap___aeabi_dsub>
200024f4:	4602      	mov	r2, r0
200024f6:	460b      	mov	r3, r1
200024f8:	e9cd 2304 	strd	r2, r3, [sp, #16]
200024fc:	2200      	movs	r2, #0
200024fe:	4b55      	ldr	r3, [pc, #340]	@ (20002654 <_ftoa+0x4b4>)
20002500:	f7ff fcbc 	bl	20001e7c <__wrap___aeabi_dcmplt>
20002504:	2800      	cmp	r0, #0
20002506:	f47f af0c 	bne.w	20002322 <_ftoa+0x182>
2000250a:	e9dd 0104 	ldrd	r0, r1, [sp, #16]
2000250e:	2200      	movs	r2, #0
20002510:	4b50      	ldr	r3, [pc, #320]	@ (20002654 <_ftoa+0x4b4>)
20002512:	f7ff fcef 	bl	20001ef4 <__wrap___aeabi_dcmpgt>
20002516:	2800      	cmp	r0, #0
20002518:	f47f af03 	bne.w	20002322 <_ftoa+0x182>
2000251c:	3401      	adds	r4, #1
2000251e:	f024 0401 	bic.w	r4, r4, #1
20002522:	e6fe      	b.n	20002322 <_ftoa+0x182>
20002524:	9b07      	ldr	r3, [sp, #28]
20002526:	f003 0303 	and.w	r3, r3, #3
2000252a:	2b01      	cmp	r3, #1
2000252c:	f000 8082 	beq.w	20002634 <_ftoa+0x494>
20002530:	2d20      	cmp	r5, #32
20002532:	f43f af2e 	beq.w	20002392 <_ftoa+0x1f2>
20002536:	9b0d      	ldr	r3, [sp, #52]	@ 0x34
20002538:	b37b      	cbz	r3, 2000259a <_ftoa+0x3fa>
2000253a:	222d      	movs	r2, #45	@ 0x2d
2000253c:	eb0d 0305 	add.w	r3, sp, r5
20002540:	f883 2038 	strb.w	r2, [r3, #56]	@ 0x38
20002544:	3501      	adds	r5, #1
20002546:	e724      	b.n	20002392 <_ftoa+0x1f2>
20002548:	2b20      	cmp	r3, #32
2000254a:	f43f aee9 	beq.w	20002320 <_ftoa+0x180>
2000254e:	aa0e      	add	r2, sp, #56	@ 0x38
20002550:	4415      	add	r5, r2
20002552:	441e      	add	r6, r3
20002554:	2230      	movs	r2, #48	@ 0x30
20002556:	e004      	b.n	20002562 <_ftoa+0x3c2>
20002558:	2b20      	cmp	r3, #32
2000255a:	f805 2f01 	strb.w	r2, [r5, #1]!
2000255e:	f43f aedf 	beq.w	20002320 <_ftoa+0x180>
20002562:	429e      	cmp	r6, r3
20002564:	f103 0301 	add.w	r3, r3, #1
20002568:	d1f6      	bne.n	20002558 <_ftoa+0x3b8>
2000256a:	222e      	movs	r2, #46	@ 0x2e
2000256c:	eb0d 0306 	add.w	r3, sp, r6
20002570:	f883 2038 	strb.w	r2, [r3, #56]	@ 0x38
20002574:	1c75      	adds	r5, r6, #1
20002576:	e6d4      	b.n	20002322 <_ftoa+0x182>
20002578:	f8dd a030 	ldr.w	sl, [sp, #48]	@ 0x30
2000257c:	e763      	b.n	20002446 <_ftoa+0x2a6>
2000257e:	2520      	movs	r5, #32
20002580:	e66e      	b.n	20002260 <_ftoa+0xc0>
20002582:	9b07      	ldr	r3, [sp, #28]
20002584:	f013 0f0c 	tst.w	r3, #12
20002588:	d050      	beq.n	2000262c <_ftoa+0x48c>
2000258a:	f10b 3bff 	add.w	fp, fp, #4294967295
2000258e:	45ab      	cmp	fp, r5
20002590:	f63f aef2 	bhi.w	20002378 <_ftoa+0x1d8>
20002594:	2d20      	cmp	r5, #32
20002596:	f43f aefc 	beq.w	20002392 <_ftoa+0x1f2>
2000259a:	9b07      	ldr	r3, [sp, #28]
2000259c:	075a      	lsls	r2, r3, #29
2000259e:	d501      	bpl.n	200025a4 <_ftoa+0x404>
200025a0:	222b      	movs	r2, #43	@ 0x2b
200025a2:	e7cb      	b.n	2000253c <_ftoa+0x39c>
200025a4:	071b      	lsls	r3, r3, #28
200025a6:	f57f aef4 	bpl.w	20002392 <_ftoa+0x1f2>
200025aa:	2220      	movs	r2, #32
200025ac:	e7c6      	b.n	2000253c <_ftoa+0x39c>
200025ae:	f01a 0f01 	tst.w	sl, #1
200025b2:	f43f ae96 	beq.w	200022e2 <_ftoa+0x142>
200025b6:	e78f      	b.n	200024d8 <_ftoa+0x338>
200025b8:	07a6      	lsls	r6, r4, #30
200025ba:	d134      	bne.n	20002626 <_ftoa+0x486>
200025bc:	f1bb 0f03 	cmp.w	fp, #3
200025c0:	d931      	bls.n	20002626 <_ftoa+0x486>
200025c2:	9b0c      	ldr	r3, [sp, #48]	@ 0x30
200025c4:	461d      	mov	r5, r3
200025c6:	1edc      	subs	r4, r3, #3
200025c8:	eb04 0a0b 	add.w	sl, r4, fp
200025cc:	462a      	mov	r2, r5
200025ce:	464b      	mov	r3, r9
200025d0:	4641      	mov	r1, r8
200025d2:	2020      	movs	r0, #32
200025d4:	3501      	adds	r5, #1
200025d6:	47b8      	blx	r7
200025d8:	4555      	cmp	r5, sl
200025da:	d1f7      	bne.n	200025cc <_ftoa+0x42c>
200025dc:	4655      	mov	r5, sl
200025de:	4c1e      	ldr	r4, [pc, #120]	@ (20002658 <_ftoa+0x4b8>)
200025e0:	1ee6      	subs	r6, r4, #3
200025e2:	f814 0d01 	ldrb.w	r0, [r4, #-1]!
200025e6:	462a      	mov	r2, r5
200025e8:	464b      	mov	r3, r9
200025ea:	4641      	mov	r1, r8
200025ec:	47b8      	blx	r7
200025ee:	42a6      	cmp	r6, r4
200025f0:	f105 0501 	add.w	r5, r5, #1
200025f4:	d1f5      	bne.n	200025e2 <_ftoa+0x442>
200025f6:	9b07      	ldr	r3, [sp, #28]
200025f8:	f10a 0a03 	add.w	sl, sl, #3
200025fc:	079d      	lsls	r5, r3, #30
200025fe:	f57f aed5 	bpl.w	200023ac <_ftoa+0x20c>
20002602:	9c0c      	ldr	r4, [sp, #48]	@ 0x30
20002604:	ebaa 0304 	sub.w	r3, sl, r4
20002608:	459b      	cmp	fp, r3
2000260a:	f67f aecf 	bls.w	200023ac <_ftoa+0x20c>
2000260e:	4652      	mov	r2, sl
20002610:	464b      	mov	r3, r9
20002612:	4641      	mov	r1, r8
20002614:	2020      	movs	r0, #32
20002616:	f10a 0a01 	add.w	sl, sl, #1
2000261a:	47b8      	blx	r7
2000261c:	ebaa 0304 	sub.w	r3, sl, r4
20002620:	459b      	cmp	fp, r3
20002622:	d8f4      	bhi.n	2000260e <_ftoa+0x46e>
20002624:	e6c2      	b.n	200023ac <_ftoa+0x20c>
20002626:	f8dd a030 	ldr.w	sl, [sp, #48]	@ 0x30
2000262a:	e7d7      	b.n	200025dc <_ftoa+0x43c>
2000262c:	45ab      	cmp	fp, r5
2000262e:	f63f aea3 	bhi.w	20002378 <_ftoa+0x1d8>
20002632:	e6ae      	b.n	20002392 <_ftoa+0x1f2>
20002634:	f1bb 0f00 	cmp.w	fp, #0
20002638:	f43f af7a 	beq.w	20002530 <_ftoa+0x390>
2000263c:	9b0d      	ldr	r3, [sp, #52]	@ 0x34
2000263e:	2b00      	cmp	r3, #0
20002640:	d09f      	beq.n	20002582 <_ftoa+0x3e2>
20002642:	f10b 3bff 	add.w	fp, fp, #4294967295
20002646:	455d      	cmp	r5, fp
20002648:	f4ff ae96 	bcc.w	20002378 <_ftoa+0x1d8>
2000264c:	2d20      	cmp	r5, #32
2000264e:	f47f af74 	bne.w	2000253a <_ftoa+0x39a>
20002652:	e69e      	b.n	20002392 <_ftoa+0x1f2>
20002654:	3fe00000 	.word	0x3fe00000
20002658:	2000520b 	.word	0x2000520b
2000265c:	00000000 	.word	0x00000000

20002660 <_etoa>:
20002660:	e92d 4ff0 	stmdb	sp!, {r4, r5, r6, r7, r8, r9, sl, fp, lr}
20002664:	b09f      	sub	sp, #124	@ 0x7c
20002666:	9e2a      	ldr	r6, [sp, #168]	@ 0xa8
20002668:	e9dd 4528 	ldrd	r4, r5, [sp, #160]	@ 0xa0
2000266c:	4607      	mov	r7, r0
2000266e:	4693      	mov	fp, r2
20002670:	9108      	str	r1, [sp, #32]
20002672:	9309      	str	r3, [sp, #36]	@ 0x24
20002674:	4622      	mov	r2, r4
20002676:	462b      	mov	r3, r5
20002678:	4620      	mov	r0, r4
2000267a:	4629      	mov	r1, r5
2000267c:	960e      	str	r6, [sp, #56]	@ 0x38
2000267e:	e9dd a62b 	ldrd	sl, r6, [sp, #172]	@ 0xac
20002682:	f7ff fbe9 	bl	20001e58 <__wrap___aeabi_dcmpun>
20002686:	2800      	cmp	r0, #0
20002688:	f040 80be 	bne.w	20002808 <_etoa+0x1a8>
2000268c:	4620      	mov	r0, r4
2000268e:	4629      	mov	r1, r5
20002690:	f04f 32ff 	mov.w	r2, #4294967295
20002694:	4b78      	ldr	r3, [pc, #480]	@ (20002878 <_etoa+0x218>)
20002696:	f7ff fc2d 	bl	20001ef4 <__wrap___aeabi_dcmpgt>
2000269a:	2800      	cmp	r0, #0
2000269c:	f040 80b4 	bne.w	20002808 <_etoa+0x1a8>
200026a0:	4620      	mov	r0, r4
200026a2:	4629      	mov	r1, r5
200026a4:	f04f 32ff 	mov.w	r2, #4294967295
200026a8:	f46f 1380 	mvn.w	r3, #1048576	@ 0x100000
200026ac:	f7ff fbe6 	bl	20001e7c <__wrap___aeabi_dcmplt>
200026b0:	2800      	cmp	r0, #0
200026b2:	f040 80a9 	bne.w	20002808 <_etoa+0x1a8>
200026b6:	4620      	mov	r0, r4
200026b8:	4629      	mov	r1, r5
200026ba:	2200      	movs	r2, #0
200026bc:	2300      	movs	r3, #0
200026be:	f7ff fbdd 	bl	20001e7c <__wrap___aeabi_dcmplt>
200026c2:	2800      	cmp	r0, #0
200026c4:	f040 81d5 	bne.w	20002a72 <_etoa+0x412>
200026c8:	e9cd 450a 	strd	r4, r5, [sp, #40]	@ 0x28
200026cc:	e9dd 230a 	ldrd	r2, r3, [sp, #40]	@ 0x28
200026d0:	4690      	mov	r8, r2
200026d2:	4699      	mov	r9, r3
200026d4:	f406 6200 	and.w	r2, r6, #2048	@ 0x800
200026d8:	f416 6380 	ands.w	r3, r6, #1024	@ 0x400
200026dc:	920f      	str	r2, [sp, #60]	@ 0x3c
200026de:	9313      	str	r3, [sp, #76]	@ 0x4c
200026e0:	f040 80a1 	bne.w	20002826 <_etoa+0x1c6>
200026e4:	ea58 0309 	orrs.w	r3, r8, r9
200026e8:	f040 80ca 	bne.w	20002880 <_etoa+0x220>
200026ec:	2a00      	cmp	r2, #0
200026ee:	f040 81e3 	bne.w	20002ab8 <_etoa+0x458>
200026f2:	2306      	movs	r3, #6
200026f4:	930e      	str	r3, [sp, #56]	@ 0x38
200026f6:	f016 0202 	ands.w	r2, r6, #2
200026fa:	9210      	str	r2, [sp, #64]	@ 0x40
200026fc:	f040 81d4 	bne.w	20002aa8 <_etoa+0x448>
20002700:	4653      	mov	r3, sl
20002702:	2b04      	cmp	r3, #4
20002704:	bf38      	it	cc
20002706:	2304      	movcc	r3, #4
20002708:	920c      	str	r2, [sp, #48]	@ 0x30
2000270a:	2204      	movs	r2, #4
2000270c:	3b04      	subs	r3, #4
2000270e:	9212      	str	r2, [sp, #72]	@ 0x48
20002710:	930f      	str	r3, [sp, #60]	@ 0x3c
20002712:	4620      	mov	r0, r4
20002714:	4629      	mov	r1, r5
20002716:	2200      	movs	r2, #0
20002718:	2300      	movs	r3, #0
2000271a:	f7ff fbaf 	bl	20001e7c <__wrap___aeabi_dcmplt>
2000271e:	2800      	cmp	r0, #0
20002720:	f040 81f3 	bne.w	20002b0a <_etoa+0x4aa>
20002724:	ed9d 7b0a 	vldr	d7, [sp, #40]	@ 0x28
20002728:	9b0f      	ldr	r3, [sp, #60]	@ 0x3c
2000272a:	465a      	mov	r2, fp
2000272c:	9303      	str	r3, [sp, #12]
2000272e:	9b0e      	ldr	r3, [sp, #56]	@ 0x38
20002730:	ed8d 7b00 	vstr	d7, [sp]
20002734:	9302      	str	r3, [sp, #8]
20002736:	f426 6300 	bic.w	r3, r6, #2048	@ 0x800
2000273a:	9304      	str	r3, [sp, #16]
2000273c:	4638      	mov	r0, r7
2000273e:	9b09      	ldr	r3, [sp, #36]	@ 0x24
20002740:	9908      	ldr	r1, [sp, #32]
20002742:	f7ff fd2d 	bl	200021a0 <_ftoa>
20002746:	4602      	mov	r2, r0
20002748:	f016 0f20 	tst.w	r6, #32
2000274c:	9b09      	ldr	r3, [sp, #36]	@ 0x24
2000274e:	9908      	ldr	r1, [sp, #32]
20002750:	bf0c      	ite	eq
20002752:	2065      	moveq	r0, #101	@ 0x65
20002754:	2045      	movne	r0, #69	@ 0x45
20002756:	f102 0801 	add.w	r8, r2, #1
2000275a:	47b8      	blx	r7
2000275c:	9a0c      	ldr	r2, [sp, #48]	@ 0x30
2000275e:	9b12      	ldr	r3, [sp, #72]	@ 0x48
20002760:	ac16      	add	r4, sp, #88	@ 0x58
20002762:	1e5d      	subs	r5, r3, #1
20002764:	ea82 73e2 	eor.w	r3, r2, r2, asr #31
20002768:	eba3 73e2 	sub.w	r3, r3, r2, asr #31
2000276c:	0fd1      	lsrs	r1, r2, #31
2000276e:	2600      	movs	r6, #0
20002770:	4622      	mov	r2, r4
20002772:	4699      	mov	r9, r3
20002774:	f8df c104 	ldr.w	ip, [pc, #260]	@ 2000287c <_etoa+0x21c>
20002778:	e001      	b.n	2000277e <_etoa+0x11e>
2000277a:	2e20      	cmp	r6, #32
2000277c:	d010      	beq.n	200027a0 <_etoa+0x140>
2000277e:	46ce      	mov	lr, r9
20002780:	fbac 3009 	umull	r3, r0, ip, r9
20002784:	08c0      	lsrs	r0, r0, #3
20002786:	eb00 0380 	add.w	r3, r0, r0, lsl #2
2000278a:	eba9 0343 	sub.w	r3, r9, r3, lsl #1
2000278e:	3330      	adds	r3, #48	@ 0x30
20002790:	f1be 0f09 	cmp.w	lr, #9
20002794:	4681      	mov	r9, r0
20002796:	f106 0601 	add.w	r6, r6, #1
2000279a:	f802 3b01 	strb.w	r3, [r2], #1
2000279e:	d8ec      	bhi.n	2000277a <_etoa+0x11a>
200027a0:	2305      	movs	r3, #5
200027a2:	2000      	movs	r0, #0
200027a4:	9306      	str	r3, [sp, #24]
200027a6:	230a      	movs	r3, #10
200027a8:	9505      	str	r5, [sp, #20]
200027aa:	9400      	str	r4, [sp, #0]
200027ac:	9d09      	ldr	r5, [sp, #36]	@ 0x24
200027ae:	9c08      	ldr	r4, [sp, #32]
200027b0:	4642      	mov	r2, r8
200027b2:	e9cd 3003 	strd	r3, r0, [sp, #12]
200027b6:	e9cd 6101 	strd	r6, r1, [sp, #4]
200027ba:	462b      	mov	r3, r5
200027bc:	4621      	mov	r1, r4
200027be:	4638      	mov	r0, r7
200027c0:	f7ff fbf8 	bl	20001fb4 <_ntoa_format>
200027c4:	9a10      	ldr	r2, [sp, #64]	@ 0x40
200027c6:	4680      	mov	r8, r0
200027c8:	b1d2      	cbz	r2, 20002800 <_etoa+0x1a0>
200027ca:	eba0 060b 	sub.w	r6, r0, fp
200027ce:	45b2      	cmp	sl, r6
200027d0:	d916      	bls.n	20002800 <_etoa+0x1a0>
200027d2:	eb0b 0206 	add.w	r2, fp, r6
200027d6:	462b      	mov	r3, r5
200027d8:	4621      	mov	r1, r4
200027da:	2020      	movs	r0, #32
200027dc:	3601      	adds	r6, #1
200027de:	47b8      	blx	r7
200027e0:	45b2      	cmp	sl, r6
200027e2:	d8f6      	bhi.n	200027d2 <_etoa+0x172>
200027e4:	f10b 33ff 	add.w	r3, fp, #4294967295
200027e8:	4453      	add	r3, sl
200027ea:	f1cb 0201 	rsb	r2, fp, #1
200027ee:	eba3 0308 	sub.w	r3, r3, r8
200027f2:	4442      	add	r2, r8
200027f4:	4592      	cmp	sl, r2
200027f6:	bf38      	it	cc
200027f8:	2300      	movcc	r3, #0
200027fa:	f108 0801 	add.w	r8, r8, #1
200027fe:	4498      	add	r8, r3
20002800:	4640      	mov	r0, r8
20002802:	b01f      	add	sp, #124	@ 0x7c
20002804:	e8bd 8ff0 	ldmia.w	sp!, {r4, r5, r6, r7, r8, r9, sl, fp, pc}
20002808:	465a      	mov	r2, fp
2000280a:	4638      	mov	r0, r7
2000280c:	e9cd 4528 	strd	r4, r5, [sp, #160]	@ 0xa0
20002810:	e9cd a62b 	strd	sl, r6, [sp, #172]	@ 0xac
20002814:	9c0e      	ldr	r4, [sp, #56]	@ 0x38
20002816:	9b09      	ldr	r3, [sp, #36]	@ 0x24
20002818:	9908      	ldr	r1, [sp, #32]
2000281a:	942a      	str	r4, [sp, #168]	@ 0xa8
2000281c:	b01f      	add	sp, #124	@ 0x7c
2000281e:	e8bd 4ff0 	ldmia.w	sp!, {r4, r5, r6, r7, r8, r9, sl, fp, lr}
20002822:	f7ff bcbd 	b.w	200021a0 <_ftoa>
20002826:	ea58 0309 	orrs.w	r3, r8, r9
2000282a:	d12b      	bne.n	20002884 <_etoa+0x224>
2000282c:	2a00      	cmp	r2, #0
2000282e:	f43f af62 	beq.w	200026f6 <_etoa+0x96>
20002832:	2300      	movs	r3, #0
20002834:	930c      	str	r3, [sp, #48]	@ 0x30
20002836:	9b0e      	ldr	r3, [sp, #56]	@ 0x38
20002838:	9a0c      	ldr	r2, [sp, #48]	@ 0x30
2000283a:	4293      	cmp	r3, r2
2000283c:	f300 81b9 	bgt.w	20002bb2 <_etoa+0x552>
20002840:	f04f 0800 	mov.w	r8, #0
20002844:	4620      	mov	r0, r4
20002846:	4629      	mov	r1, r5
20002848:	2200      	movs	r2, #0
2000284a:	2300      	movs	r3, #0
2000284c:	f7ff fb16 	bl	20001e7c <__wrap___aeabi_dcmplt>
20002850:	2800      	cmp	r0, #0
20002852:	f040 8113 	bne.w	20002a7c <_etoa+0x41c>
20002856:	ed9d 7b0a 	vldr	d7, [sp, #40]	@ 0x28
2000285a:	f426 6600 	bic.w	r6, r6, #2048	@ 0x800
2000285e:	f446 6680 	orr.w	r6, r6, #1024	@ 0x400
20002862:	ed8d 7b28 	vstr	d7, [sp, #160]	@ 0xa0
20002866:	465a      	mov	r2, fp
20002868:	4638      	mov	r0, r7
2000286a:	e9cd 8a2a 	strd	r8, sl, [sp, #168]	@ 0xa8
2000286e:	9b09      	ldr	r3, [sp, #36]	@ 0x24
20002870:	9908      	ldr	r1, [sp, #32]
20002872:	962c      	str	r6, [sp, #176]	@ 0xb0
20002874:	e7d2      	b.n	2000281c <_etoa+0x1bc>
20002876:	bf00      	nop
20002878:	7fefffff 	.word	0x7fefffff
2000287c:	cccccccd 	.word	0xcccccccd
20002880:	2306      	movs	r3, #6
20002882:	930e      	str	r3, [sp, #56]	@ 0x38
20002884:	f3c9 500a 	ubfx	r0, r9, #20, #11
20002888:	f2a0 30ff 	subw	r0, r0, #1023	@ 0x3ff
2000288c:	f7ff fa9c 	bl	20001dc8 <__wrap___aeabi_i2d>
20002890:	a3c1      	add	r3, pc, #772	@ (adr r3, 20002b98 <_etoa+0x538>)
20002892:	e9d3 2300 	ldrd	r2, r3, [r3]
20002896:	f7ff fa23 	bl	20001ce0 <__wrap___aeabi_dmul>
2000289a:	a3c1      	add	r3, pc, #772	@ (adr r3, 20002ba0 <_etoa+0x540>)
2000289c:	e9d3 2300 	ldrd	r2, r3, [r3]
200028a0:	f7ff f9f6 	bl	20001c90 <__wrap___aeabi_dadd>
200028a4:	f3c9 0913 	ubfx	r9, r9, #0, #20
200028a8:	e9cd 010c 	strd	r0, r1, [sp, #48]	@ 0x30
200028ac:	f049 517f 	orr.w	r1, r9, #1069547520	@ 0x3fc00000
200028b0:	4640      	mov	r0, r8
200028b2:	2200      	movs	r2, #0
200028b4:	4bb2      	ldr	r3, [pc, #712]	@ (20002b80 <_etoa+0x520>)
200028b6:	f441 1140 	orr.w	r1, r1, #3145728	@ 0x300000
200028ba:	f7ff f9fd 	bl	20001cb8 <__wrap___aeabi_dsub>
200028be:	a3a4      	add	r3, pc, #656	@ (adr r3, 20002b50 <_etoa+0x4f0>)
200028c0:	e9d3 2300 	ldrd	r2, r3, [r3]
200028c4:	f7ff fa0c 	bl	20001ce0 <__wrap___aeabi_dmul>
200028c8:	4602      	mov	r2, r0
200028ca:	460b      	mov	r3, r1
200028cc:	e9dd 010c 	ldrd	r0, r1, [sp, #48]	@ 0x30
200028d0:	f7ff f9de 	bl	20001c90 <__wrap___aeabi_dadd>
200028d4:	f7ff fa9c 	bl	20001e10 <__wrap___aeabi_d2iz>
200028d8:	900c      	str	r0, [sp, #48]	@ 0x30
200028da:	f7ff fa75 	bl	20001dc8 <__wrap___aeabi_i2d>
200028de:	a39e      	add	r3, pc, #632	@ (adr r3, 20002b58 <_etoa+0x4f8>)
200028e0:	e9d3 2300 	ldrd	r2, r3, [r3]
200028e4:	4680      	mov	r8, r0
200028e6:	4689      	mov	r9, r1
200028e8:	f7ff f9fa 	bl	20001ce0 <__wrap___aeabi_dmul>
200028ec:	2200      	movs	r2, #0
200028ee:	4ba5      	ldr	r3, [pc, #660]	@ (20002b84 <_etoa+0x524>)
200028f0:	f7ff f9ce 	bl	20001c90 <__wrap___aeabi_dadd>
200028f4:	f7ff fa8c 	bl	20001e10 <__wrap___aeabi_d2iz>
200028f8:	4603      	mov	r3, r0
200028fa:	4649      	mov	r1, r9
200028fc:	4640      	mov	r0, r8
200028fe:	9312      	str	r3, [sp, #72]	@ 0x48
20002900:	a397      	add	r3, pc, #604	@ (adr r3, 20002b60 <_etoa+0x500>)
20002902:	e9d3 2300 	ldrd	r2, r3, [r3]
20002906:	f7ff f9eb 	bl	20001ce0 <__wrap___aeabi_dmul>
2000290a:	4680      	mov	r8, r0
2000290c:	9812      	ldr	r0, [sp, #72]	@ 0x48
2000290e:	4689      	mov	r9, r1
20002910:	f7ff fa5a 	bl	20001dc8 <__wrap___aeabi_i2d>
20002914:	a394      	add	r3, pc, #592	@ (adr r3, 20002b68 <_etoa+0x508>)
20002916:	e9d3 2300 	ldrd	r2, r3, [r3]
2000291a:	f7ff f9e1 	bl	20001ce0 <__wrap___aeabi_dmul>
2000291e:	4602      	mov	r2, r0
20002920:	460b      	mov	r3, r1
20002922:	4640      	mov	r0, r8
20002924:	4649      	mov	r1, r9
20002926:	f7ff f9c7 	bl	20001cb8 <__wrap___aeabi_dsub>
2000292a:	4602      	mov	r2, r0
2000292c:	460b      	mov	r3, r1
2000292e:	4680      	mov	r8, r0
20002930:	4689      	mov	r9, r1
20002932:	f7ff f9d5 	bl	20001ce0 <__wrap___aeabi_dmul>
20002936:	4642      	mov	r2, r8
20002938:	464b      	mov	r3, r9
2000293a:	e9cd 0110 	strd	r0, r1, [sp, #64]	@ 0x40
2000293e:	4640      	mov	r0, r8
20002940:	4649      	mov	r1, r9
20002942:	f7ff f9a5 	bl	20001c90 <__wrap___aeabi_dadd>
20002946:	2200      	movs	r2, #0
20002948:	e9cd 0114 	strd	r0, r1, [sp, #80]	@ 0x50
2000294c:	e9dd 0110 	ldrd	r0, r1, [sp, #64]	@ 0x40
20002950:	4b8d      	ldr	r3, [pc, #564]	@ (20002b88 <_etoa+0x528>)
20002952:	f7ff f9eb 	bl	20001d2c <__wrap___aeabi_ddiv>
20002956:	2200      	movs	r2, #0
20002958:	4b8c      	ldr	r3, [pc, #560]	@ (20002b8c <_etoa+0x52c>)
2000295a:	f7ff f999 	bl	20001c90 <__wrap___aeabi_dadd>
2000295e:	4602      	mov	r2, r0
20002960:	460b      	mov	r3, r1
20002962:	e9dd 0110 	ldrd	r0, r1, [sp, #64]	@ 0x40
20002966:	f7ff f9e1 	bl	20001d2c <__wrap___aeabi_ddiv>
2000296a:	2200      	movs	r2, #0
2000296c:	4b88      	ldr	r3, [pc, #544]	@ (20002b90 <_etoa+0x530>)
2000296e:	f7ff f98f 	bl	20001c90 <__wrap___aeabi_dadd>
20002972:	4602      	mov	r2, r0
20002974:	460b      	mov	r3, r1
20002976:	e9dd 0110 	ldrd	r0, r1, [sp, #64]	@ 0x40
2000297a:	f7ff f9d7 	bl	20001d2c <__wrap___aeabi_ddiv>
2000297e:	4642      	mov	r2, r8
20002980:	464b      	mov	r3, r9
20002982:	4680      	mov	r8, r0
20002984:	4689      	mov	r9, r1
20002986:	2000      	movs	r0, #0
20002988:	f04f 4180 	mov.w	r1, #1073741824	@ 0x40000000
2000298c:	f7ff f994 	bl	20001cb8 <__wrap___aeabi_dsub>
20002990:	4602      	mov	r2, r0
20002992:	460b      	mov	r3, r1
20002994:	4640      	mov	r0, r8
20002996:	4649      	mov	r1, r9
20002998:	f7ff f97a 	bl	20001c90 <__wrap___aeabi_dadd>
2000299c:	4602      	mov	r2, r0
2000299e:	460b      	mov	r3, r1
200029a0:	e9dd 0114 	ldrd	r0, r1, [sp, #80]	@ 0x50
200029a4:	f7ff f9c2 	bl	20001d2c <__wrap___aeabi_ddiv>
200029a8:	2200      	movs	r2, #0
200029aa:	4b7a      	ldr	r3, [pc, #488]	@ (20002b94 <_etoa+0x534>)
200029ac:	f7ff f970 	bl	20001c90 <__wrap___aeabi_dadd>
200029b0:	9b12      	ldr	r3, [sp, #72]	@ 0x48
200029b2:	2200      	movs	r2, #0
200029b4:	f203 3cff 	addw	ip, r3, #1023	@ 0x3ff
200029b8:	ea4f 530c 	mov.w	r3, ip, lsl #20
200029bc:	f7ff f990 	bl	20001ce0 <__wrap___aeabi_dmul>
200029c0:	4680      	mov	r8, r0
200029c2:	4689      	mov	r9, r1
200029c4:	e9dd 010a 	ldrd	r0, r1, [sp, #40]	@ 0x28
200029c8:	4642      	mov	r2, r8
200029ca:	464b      	mov	r3, r9
200029cc:	f7ff fa56 	bl	20001e7c <__wrap___aeabi_dcmplt>
200029d0:	b150      	cbz	r0, 200029e8 <_etoa+0x388>
200029d2:	9b0c      	ldr	r3, [sp, #48]	@ 0x30
200029d4:	4640      	mov	r0, r8
200029d6:	3b01      	subs	r3, #1
200029d8:	4649      	mov	r1, r9
200029da:	930c      	str	r3, [sp, #48]	@ 0x30
200029dc:	2200      	movs	r2, #0
200029de:	4b6b      	ldr	r3, [pc, #428]	@ (20002b8c <_etoa+0x52c>)
200029e0:	f7ff f9a4 	bl	20001d2c <__wrap___aeabi_ddiv>
200029e4:	4680      	mov	r8, r0
200029e6:	4689      	mov	r9, r1
200029e8:	9a0c      	ldr	r2, [sp, #48]	@ 0x30
200029ea:	4643      	mov	r3, r8
200029ec:	3263      	adds	r2, #99	@ 0x63
200029ee:	2ac6      	cmp	r2, #198	@ 0xc6
200029f0:	f006 0202 	and.w	r2, r6, #2
200029f4:	9210      	str	r2, [sp, #64]	@ 0x40
200029f6:	4649      	mov	r1, r9
200029f8:	9a0f      	ldr	r2, [sp, #60]	@ 0x3c
200029fa:	d82c      	bhi.n	20002a56 <_etoa+0x3f6>
200029fc:	2a00      	cmp	r2, #0
200029fe:	d05e      	beq.n	20002abe <_etoa+0x45e>
20002a00:	2204      	movs	r2, #4
20002a02:	9212      	str	r2, [sp, #72]	@ 0x48
20002a04:	430b      	orrs	r3, r1
20002a06:	f43f af16 	beq.w	20002836 <_etoa+0x1d6>
20002a0a:	e9dd 010a 	ldrd	r0, r1, [sp, #40]	@ 0x28
20002a0e:	a358      	add	r3, pc, #352	@ (adr r3, 20002b70 <_etoa+0x510>)
20002a10:	e9d3 2300 	ldrd	r2, r3, [r3]
20002a14:	f7ff fa5a 	bl	20001ecc <__wrap___aeabi_dcmpge>
20002a18:	b148      	cbz	r0, 20002a2e <_etoa+0x3ce>
20002a1a:	e9dd 010a 	ldrd	r0, r1, [sp, #40]	@ 0x28
20002a1e:	a356      	add	r3, pc, #344	@ (adr r3, 20002b78 <_etoa+0x518>)
20002a20:	e9d3 2300 	ldrd	r2, r3, [r3]
20002a24:	f7ff fa2a 	bl	20001e7c <__wrap___aeabi_dcmplt>
20002a28:	2800      	cmp	r0, #0
20002a2a:	f47f af04 	bne.w	20002836 <_etoa+0x1d6>
20002a2e:	9b0e      	ldr	r3, [sp, #56]	@ 0x38
20002a30:	2b00      	cmp	r3, #0
20002a32:	d050      	beq.n	20002ad6 <_etoa+0x476>
20002a34:	9a13      	ldr	r2, [sp, #76]	@ 0x4c
20002a36:	2a00      	cmp	r2, #0
20002a38:	d07d      	beq.n	20002b36 <_etoa+0x4d6>
20002a3a:	3b01      	subs	r3, #1
20002a3c:	930e      	str	r3, [sp, #56]	@ 0x38
20002a3e:	9b12      	ldr	r3, [sp, #72]	@ 0x48
20002a40:	459a      	cmp	sl, r3
20002a42:	d905      	bls.n	20002a50 <_etoa+0x3f0>
20002a44:	9b10      	ldr	r3, [sp, #64]	@ 0x40
20002a46:	2b00      	cmp	r3, #0
20002a48:	f000 80ae 	beq.w	20002ba8 <_etoa+0x548>
20002a4c:	2302      	movs	r3, #2
20002a4e:	9310      	str	r3, [sp, #64]	@ 0x40
20002a50:	2300      	movs	r3, #0
20002a52:	930f      	str	r3, [sp, #60]	@ 0x3c
20002a54:	e044      	b.n	20002ae0 <_etoa+0x480>
20002a56:	bb22      	cbnz	r2, 20002aa2 <_etoa+0x442>
20002a58:	f1ba 0f05 	cmp.w	sl, #5
20002a5c:	d94f      	bls.n	20002afe <_etoa+0x49e>
20002a5e:	f006 0302 	and.w	r3, r6, #2
20002a62:	2b00      	cmp	r3, #0
20002a64:	d149      	bne.n	20002afa <_etoa+0x49a>
20002a66:	2305      	movs	r3, #5
20002a68:	9312      	str	r3, [sp, #72]	@ 0x48
20002a6a:	f1aa 0305 	sub.w	r3, sl, #5
20002a6e:	930f      	str	r3, [sp, #60]	@ 0x3c
20002a70:	e03a      	b.n	20002ae8 <_etoa+0x488>
20002a72:	f105 4300 	add.w	r3, r5, #2147483648	@ 0x80000000
20002a76:	940a      	str	r4, [sp, #40]	@ 0x28
20002a78:	930b      	str	r3, [sp, #44]	@ 0x2c
20002a7a:	e627      	b.n	200026cc <_etoa+0x6c>
20002a7c:	f426 6600 	bic.w	r6, r6, #2048	@ 0x800
20002a80:	f446 6680 	orr.w	r6, r6, #1024	@ 0x400
20002a84:	4638      	mov	r0, r7
20002a86:	962c      	str	r6, [sp, #176]	@ 0xb0
20002a88:	e9dd 670a 	ldrd	r6, r7, [sp, #40]	@ 0x28
20002a8c:	4634      	mov	r4, r6
20002a8e:	f107 4500 	add.w	r5, r7, #2147483648	@ 0x80000000
20002a92:	465a      	mov	r2, fp
20002a94:	e9cd 8a2a 	strd	r8, sl, [sp, #168]	@ 0xa8
20002a98:	e9cd 4528 	strd	r4, r5, [sp, #160]	@ 0xa0
20002a9c:	9b09      	ldr	r3, [sp, #36]	@ 0x24
20002a9e:	9908      	ldr	r1, [sp, #32]
20002aa0:	e6bc      	b.n	2000281c <_etoa+0x1bc>
20002aa2:	2205      	movs	r2, #5
20002aa4:	9212      	str	r2, [sp, #72]	@ 0x48
20002aa6:	e7ad      	b.n	20002a04 <_etoa+0x3a4>
20002aa8:	2300      	movs	r3, #0
20002aaa:	2202      	movs	r2, #2
20002aac:	e9cd 320f 	strd	r3, r2, [sp, #60]	@ 0x3c
20002ab0:	2204      	movs	r2, #4
20002ab2:	930c      	str	r3, [sp, #48]	@ 0x30
20002ab4:	9212      	str	r2, [sp, #72]	@ 0x48
20002ab6:	e62c      	b.n	20002712 <_etoa+0xb2>
20002ab8:	f04f 0805 	mov.w	r8, #5
20002abc:	e6c2      	b.n	20002844 <_etoa+0x1e4>
20002abe:	f1ba 0f04 	cmp.w	sl, #4
20002ac2:	d91f      	bls.n	20002b04 <_etoa+0x4a4>
20002ac4:	9b10      	ldr	r3, [sp, #64]	@ 0x40
20002ac6:	2b00      	cmp	r3, #0
20002ac8:	d178      	bne.n	20002bbc <_etoa+0x55c>
20002aca:	2304      	movs	r3, #4
20002acc:	9312      	str	r3, [sp, #72]	@ 0x48
20002ace:	f1aa 0304 	sub.w	r3, sl, #4
20002ad2:	930f      	str	r3, [sp, #60]	@ 0x3c
20002ad4:	e004      	b.n	20002ae0 <_etoa+0x480>
20002ad6:	9b12      	ldr	r3, [sp, #72]	@ 0x48
20002ad8:	459a      	cmp	sl, r3
20002ada:	d831      	bhi.n	20002b40 <_etoa+0x4e0>
20002adc:	9b0e      	ldr	r3, [sp, #56]	@ 0x38
20002ade:	930f      	str	r3, [sp, #60]	@ 0x3c
20002ae0:	9b0c      	ldr	r3, [sp, #48]	@ 0x30
20002ae2:	2b00      	cmp	r3, #0
20002ae4:	f43f ae15 	beq.w	20002712 <_etoa+0xb2>
20002ae8:	e9dd 010a 	ldrd	r0, r1, [sp, #40]	@ 0x28
20002aec:	4642      	mov	r2, r8
20002aee:	464b      	mov	r3, r9
20002af0:	f7ff f91c 	bl	20001d2c <__wrap___aeabi_ddiv>
20002af4:	e9cd 010a 	strd	r0, r1, [sp, #40]	@ 0x28
20002af8:	e60b      	b.n	20002712 <_etoa+0xb2>
20002afa:	2302      	movs	r3, #2
20002afc:	9310      	str	r3, [sp, #64]	@ 0x40
20002afe:	2305      	movs	r3, #5
20002b00:	9312      	str	r3, [sp, #72]	@ 0x48
20002b02:	e7f1      	b.n	20002ae8 <_etoa+0x488>
20002b04:	2304      	movs	r3, #4
20002b06:	9312      	str	r3, [sp, #72]	@ 0x48
20002b08:	e7ea      	b.n	20002ae0 <_etoa+0x480>
20002b0a:	e9dd 450a 	ldrd	r4, r5, [sp, #40]	@ 0x28
20002b0e:	46a0      	mov	r8, r4
20002b10:	9b0f      	ldr	r3, [sp, #60]	@ 0x3c
20002b12:	f105 4900 	add.w	r9, r5, #2147483648	@ 0x80000000
20002b16:	9303      	str	r3, [sp, #12]
20002b18:	9b0e      	ldr	r3, [sp, #56]	@ 0x38
20002b1a:	465a      	mov	r2, fp
20002b1c:	9302      	str	r3, [sp, #8]
20002b1e:	f426 6300 	bic.w	r3, r6, #2048	@ 0x800
20002b22:	9304      	str	r3, [sp, #16]
20002b24:	4638      	mov	r0, r7
20002b26:	e9cd 8900 	strd	r8, r9, [sp]
20002b2a:	9b09      	ldr	r3, [sp, #36]	@ 0x24
20002b2c:	9908      	ldr	r1, [sp, #32]
20002b2e:	f7ff fb37 	bl	200021a0 <_ftoa>
20002b32:	4602      	mov	r2, r0
20002b34:	e608      	b.n	20002748 <_etoa+0xe8>
20002b36:	9b12      	ldr	r3, [sp, #72]	@ 0x48
20002b38:	459a      	cmp	sl, r3
20002b3a:	d844      	bhi.n	20002bc6 <_etoa+0x566>
20002b3c:	920f      	str	r2, [sp, #60]	@ 0x3c
20002b3e:	e7cf      	b.n	20002ae0 <_etoa+0x480>
20002b40:	9b10      	ldr	r3, [sp, #64]	@ 0x40
20002b42:	b38b      	cbz	r3, 20002ba8 <_etoa+0x548>
20002b44:	9b0e      	ldr	r3, [sp, #56]	@ 0x38
20002b46:	930f      	str	r3, [sp, #60]	@ 0x3c
20002b48:	2302      	movs	r3, #2
20002b4a:	9310      	str	r3, [sp, #64]	@ 0x40
20002b4c:	e7c8      	b.n	20002ae0 <_etoa+0x480>
20002b4e:	bf00      	nop
20002b50:	636f4361 	.word	0x636f4361
20002b54:	3fd287a7 	.word	0x3fd287a7
20002b58:	0979a371 	.word	0x0979a371
20002b5c:	400a934f 	.word	0x400a934f
20002b60:	bbb55516 	.word	0xbbb55516
20002b64:	40026bb1 	.word	0x40026bb1
20002b68:	fefa39ef 	.word	0xfefa39ef
20002b6c:	3fe62e42 	.word	0x3fe62e42
20002b70:	eb1c432d 	.word	0xeb1c432d
20002b74:	3f1a36e2 	.word	0x3f1a36e2
20002b78:	00000000 	.word	0x00000000
20002b7c:	412e8480 	.word	0x412e8480
20002b80:	3ff80000 	.word	0x3ff80000
20002b84:	3fe00000 	.word	0x3fe00000
20002b88:	402c0000 	.word	0x402c0000
20002b8c:	40240000 	.word	0x40240000
20002b90:	40180000 	.word	0x40180000
20002b94:	3ff00000 	.word	0x3ff00000
20002b98:	509f79fb 	.word	0x509f79fb
20002b9c:	3fd34413 	.word	0x3fd34413
20002ba0:	8b60c8b3 	.word	0x8b60c8b3
20002ba4:	3fc68a28 	.word	0x3fc68a28
20002ba8:	9b12      	ldr	r3, [sp, #72]	@ 0x48
20002baa:	ebaa 0303 	sub.w	r3, sl, r3
20002bae:	930f      	str	r3, [sp, #60]	@ 0x3c
20002bb0:	e796      	b.n	20002ae0 <_etoa+0x480>
20002bb2:	eba3 0802 	sub.w	r8, r3, r2
20002bb6:	f108 38ff 	add.w	r8, r8, #4294967295
20002bba:	e643      	b.n	20002844 <_etoa+0x1e4>
20002bbc:	2304      	movs	r3, #4
20002bbe:	9312      	str	r3, [sp, #72]	@ 0x48
20002bc0:	2302      	movs	r3, #2
20002bc2:	9310      	str	r3, [sp, #64]	@ 0x40
20002bc4:	e78c      	b.n	20002ae0 <_etoa+0x480>
20002bc6:	9b10      	ldr	r3, [sp, #64]	@ 0x40
20002bc8:	2b00      	cmp	r3, #0
20002bca:	d0ed      	beq.n	20002ba8 <_etoa+0x548>
20002bcc:	2302      	movs	r3, #2
20002bce:	920f      	str	r2, [sp, #60]	@ 0x3c
20002bd0:	9310      	str	r3, [sp, #64]	@ 0x40
20002bd2:	e785      	b.n	20002ae0 <_etoa+0x480>

20002bd4 <_vsnprintf>:
20002bd4:	e92d 4ff0 	stmdb	sp!, {r4, r5, r6, r7, r8, r9, sl, fp, lr}
20002bd8:	b09b      	sub	sp, #108	@ 0x6c
20002bda:	9c24      	ldr	r4, [sp, #144]	@ 0x90
20002bdc:	4d95      	ldr	r5, [pc, #596]	@ (20002e34 <_vsnprintf+0x260>)
20002bde:	940a      	str	r4, [sp, #40]	@ 0x28
20002be0:	4c95      	ldr	r4, [pc, #596]	@ (20002e38 <_vsnprintf+0x264>)
20002be2:	f1b1 0a00 	subs.w	sl, r1, #0
20002be6:	bf18      	it	ne
20002be8:	4683      	movne	fp, r0
20002bea:	6025      	str	r5, [r4, #0]
20002bec:	7818      	ldrb	r0, [r3, #0]
20002bee:	4c93      	ldr	r4, [pc, #588]	@ (20002e3c <_vsnprintf+0x268>)
20002bf0:	4691      	mov	r9, r2
20002bf2:	bf08      	it	eq
20002bf4:	46a3      	moveq	fp, r4
20002bf6:	9309      	str	r3, [sp, #36]	@ 0x24
20002bf8:	2800      	cmp	r0, #0
20002bfa:	f000 8293 	beq.w	20003124 <_vsnprintf+0x550>
20002bfe:	f04f 0800 	mov.w	r8, #0
20002c02:	e00a      	b.n	20002c1a <_vsnprintf+0x46>
20002c04:	4642      	mov	r2, r8
20002c06:	464b      	mov	r3, r9
20002c08:	4651      	mov	r1, sl
20002c0a:	f108 0801 	add.w	r8, r8, #1
20002c0e:	47d8      	blx	fp
20002c10:	9b09      	ldr	r3, [sp, #36]	@ 0x24
20002c12:	7818      	ldrb	r0, [r3, #0]
20002c14:	2800      	cmp	r0, #0
20002c16:	f000 80ce 	beq.w	20002db6 <_vsnprintf+0x1e2>
20002c1a:	9b09      	ldr	r3, [sp, #36]	@ 0x24
20002c1c:	2825      	cmp	r0, #37	@ 0x25
20002c1e:	f103 0301 	add.w	r3, r3, #1
20002c22:	9309      	str	r3, [sp, #36]	@ 0x24
20002c24:	d1ee      	bne.n	20002c04 <_vsnprintf+0x30>
20002c26:	461c      	mov	r4, r3
20002c28:	2300      	movs	r3, #0
20002c2a:	4622      	mov	r2, r4
20002c2c:	f812 0b01 	ldrb.w	r0, [r2], #1
20002c30:	f1a0 0120 	sub.w	r1, r0, #32
20002c34:	2910      	cmp	r1, #16
20002c36:	d80a      	bhi.n	20002c4e <_vsnprintf+0x7a>
20002c38:	e8df f001 	tbb	[pc, r1]
20002c3c:	3c090940 	.word	0x3c090940
20002c40:	09090909 	.word	0x09090909
20002c44:	38090909 	.word	0x38090909
20002c48:	09093409 	.word	0x09093409
20002c4c:	30          	.byte	0x30
20002c4d:	00          	.byte	0x00
20002c4e:	f1a0 0130 	sub.w	r1, r0, #48	@ 0x30
20002c52:	2909      	cmp	r1, #9
20002c54:	9409      	str	r4, [sp, #36]	@ 0x24
20002c56:	f240 808a 	bls.w	20002d6e <_vsnprintf+0x19a>
20002c5a:	282a      	cmp	r0, #42	@ 0x2a
20002c5c:	f000 80f0 	beq.w	20002e40 <_vsnprintf+0x26c>
20002c60:	2500      	movs	r5, #0
20002c62:	282e      	cmp	r0, #46	@ 0x2e
20002c64:	f000 8096 	beq.w	20002d94 <_vsnprintf+0x1c0>
20002c68:	2600      	movs	r6, #0
20002c6a:	f1a0 0168 	sub.w	r1, r0, #104	@ 0x68
20002c6e:	2912      	cmp	r1, #18
20002c70:	d82d      	bhi.n	20002cce <_vsnprintf+0xfa>
20002c72:	e8df f011 	tbh	[pc, r1, lsl #1]
20002c76:	0149      	.short	0x0149
20002c78:	0143002c 	.word	0x0143002c
20002c7c:	0138002c 	.word	0x0138002c
20002c80:	002c002c 	.word	0x002c002c
20002c84:	002c002c 	.word	0x002c002c
20002c88:	002c002c 	.word	0x002c002c
20002c8c:	0027002c 	.word	0x0027002c
20002c90:	002c002c 	.word	0x002c002c
20002c94:	002c002c 	.word	0x002c002c
20002c98:	0027002c 	.word	0x0027002c
20002c9c:	4614      	mov	r4, r2
20002c9e:	f043 0301 	orr.w	r3, r3, #1
20002ca2:	e7c2      	b.n	20002c2a <_vsnprintf+0x56>
20002ca4:	4614      	mov	r4, r2
20002ca6:	f043 0302 	orr.w	r3, r3, #2
20002caa:	e7be      	b.n	20002c2a <_vsnprintf+0x56>
20002cac:	4614      	mov	r4, r2
20002cae:	f043 0304 	orr.w	r3, r3, #4
20002cb2:	e7ba      	b.n	20002c2a <_vsnprintf+0x56>
20002cb4:	4614      	mov	r4, r2
20002cb6:	f043 0310 	orr.w	r3, r3, #16
20002cba:	e7b6      	b.n	20002c2a <_vsnprintf+0x56>
20002cbc:	4614      	mov	r4, r2
20002cbe:	f043 0308 	orr.w	r3, r3, #8
20002cc2:	e7b2      	b.n	20002c2a <_vsnprintf+0x56>
20002cc4:	9909      	ldr	r1, [sp, #36]	@ 0x24
20002cc6:	7848      	ldrb	r0, [r1, #1]
20002cc8:	f443 7380 	orr.w	r3, r3, #256	@ 0x100
20002ccc:	3201      	adds	r2, #1
20002cce:	2867      	cmp	r0, #103	@ 0x67
20002cd0:	9209      	str	r2, [sp, #36]	@ 0x24
20002cd2:	d87e      	bhi.n	20002dd2 <_vsnprintf+0x1fe>
20002cd4:	2824      	cmp	r0, #36	@ 0x24
20002cd6:	f240 80c1 	bls.w	20002e5c <_vsnprintf+0x288>
20002cda:	f1a0 0225 	sub.w	r2, r0, #37	@ 0x25
20002cde:	2a42      	cmp	r2, #66	@ 0x42
20002ce0:	f200 80bc 	bhi.w	20002e5c <_vsnprintf+0x288>
20002ce4:	e8df f012 	tbh	[pc, r2, lsl #1]
20002ce8:	00ba0150 	.word	0x00ba0150
20002cec:	00ba00ba 	.word	0x00ba00ba
20002cf0:	00ba00ba 	.word	0x00ba00ba
20002cf4:	00ba00ba 	.word	0x00ba00ba
20002cf8:	00ba00ba 	.word	0x00ba00ba
20002cfc:	00ba00ba 	.word	0x00ba00ba
20002d00:	00ba00ba 	.word	0x00ba00ba
20002d04:	00ba00ba 	.word	0x00ba00ba
20002d08:	00ba00ba 	.word	0x00ba00ba
20002d0c:	00ba00ba 	.word	0x00ba00ba
20002d10:	00ba00ba 	.word	0x00ba00ba
20002d14:	00ba00ba 	.word	0x00ba00ba
20002d18:	00ba00ba 	.word	0x00ba00ba
20002d1c:	00ba00ba 	.word	0x00ba00ba
20002d20:	00ba00ba 	.word	0x00ba00ba
20002d24:	00ba00ba 	.word	0x00ba00ba
20002d28:	01370119 	.word	0x01370119
20002d2c:	00ba0119 	.word	0x00ba0119
20002d30:	00ba00ba 	.word	0x00ba00ba
20002d34:	00ba00ba 	.word	0x00ba00ba
20002d38:	00ba00ba 	.word	0x00ba00ba
20002d3c:	00ba00ba 	.word	0x00ba00ba
20002d40:	00ba00ba 	.word	0x00ba00ba
20002d44:	00ba00ba 	.word	0x00ba00ba
20002d48:	00ba00ba 	.word	0x00ba00ba
20002d4c:	01bc00ba 	.word	0x01bc00ba
20002d50:	00ba00ba 	.word	0x00ba00ba
20002d54:	00ba00ba 	.word	0x00ba00ba
20002d58:	00ba00ba 	.word	0x00ba00ba
20002d5c:	00ba00ba 	.word	0x00ba00ba
20002d60:	01bc00ba 	.word	0x01bc00ba
20002d64:	01bc0158 	.word	0x01bc0158
20002d68:	01370119 	.word	0x01370119
20002d6c:	0119      	.short	0x0119
20002d6e:	2500      	movs	r5, #0
20002d70:	e000      	b.n	20002d74 <_vsnprintf+0x1a0>
20002d72:	3201      	adds	r2, #1
20002d74:	eb05 0585 	add.w	r5, r5, r5, lsl #2
20002d78:	eb00 0545 	add.w	r5, r0, r5, lsl #1
20002d7c:	7810      	ldrb	r0, [r2, #0]
20002d7e:	3d30      	subs	r5, #48	@ 0x30
20002d80:	f1a0 0130 	sub.w	r1, r0, #48	@ 0x30
20002d84:	2909      	cmp	r1, #9
20002d86:	d9f4      	bls.n	20002d72 <_vsnprintf+0x19e>
20002d88:	282e      	cmp	r0, #46	@ 0x2e
20002d8a:	9209      	str	r2, [sp, #36]	@ 0x24
20002d8c:	f102 0201 	add.w	r2, r2, #1
20002d90:	f47f af6a 	bne.w	20002c68 <_vsnprintf+0x94>
20002d94:	9909      	ldr	r1, [sp, #36]	@ 0x24
20002d96:	f443 6380 	orr.w	r3, r3, #1024	@ 0x400
20002d9a:	7848      	ldrb	r0, [r1, #1]
20002d9c:	4611      	mov	r1, r2
20002d9e:	f1a0 0630 	sub.w	r6, r0, #48	@ 0x30
20002da2:	2e09      	cmp	r6, #9
20002da4:	f240 8121 	bls.w	20002fea <_vsnprintf+0x416>
20002da8:	282a      	cmp	r0, #42	@ 0x2a
20002daa:	f000 812f 	beq.w	2000300c <_vsnprintf+0x438>
20002dae:	9209      	str	r2, [sp, #36]	@ 0x24
20002db0:	2600      	movs	r6, #0
20002db2:	3201      	adds	r2, #1
20002db4:	e759      	b.n	20002c6a <_vsnprintf+0x96>
20002db6:	4644      	mov	r4, r8
20002db8:	45c1      	cmp	r9, r8
20002dba:	d801      	bhi.n	20002dc0 <_vsnprintf+0x1ec>
20002dbc:	f109 38ff 	add.w	r8, r9, #4294967295
20002dc0:	464b      	mov	r3, r9
20002dc2:	4642      	mov	r2, r8
20002dc4:	4651      	mov	r1, sl
20002dc6:	2000      	movs	r0, #0
20002dc8:	47d8      	blx	fp
20002dca:	4620      	mov	r0, r4
20002dcc:	b01b      	add	sp, #108	@ 0x6c
20002dce:	e8bd 8ff0 	ldmia.w	sp!, {r4, r5, r6, r7, r8, r9, sl, fp, pc}
20002dd2:	f1a0 0269 	sub.w	r2, r0, #105	@ 0x69
20002dd6:	b2d2      	uxtb	r2, r2
20002dd8:	2a0f      	cmp	r2, #15
20002dda:	d83f      	bhi.n	20002e5c <_vsnprintf+0x288>
20002ddc:	2101      	movs	r1, #1
20002dde:	f249 0741 	movw	r7, #36929	@ 0x9041
20002de2:	4091      	lsls	r1, r2
20002de4:	4039      	ands	r1, r7
20002de6:	f040 80f3 	bne.w	20002fd0 <_vsnprintf+0x3fc>
20002dea:	2a0a      	cmp	r2, #10
20002dec:	d03d      	beq.n	20002e6a <_vsnprintf+0x296>
20002dee:	2a07      	cmp	r2, #7
20002df0:	d134      	bne.n	20002e5c <_vsnprintf+0x288>
20002df2:	9d0a      	ldr	r5, [sp, #40]	@ 0x28
20002df4:	f855 2b04 	ldr.w	r2, [r5], #4
20002df8:	2a00      	cmp	r2, #0
20002dfa:	f000 8113 	beq.w	20003024 <_vsnprintf+0x450>
20002dfe:	f043 0021 	orr.w	r0, r3, #33	@ 0x21
20002e02:	ab12      	add	r3, sp, #72	@ 0x48
20002e04:	461f      	mov	r7, r3
20002e06:	930b      	str	r3, [sp, #44]	@ 0x2c
20002e08:	e003      	b.n	20002e12 <_vsnprintf+0x23e>
20002e0a:	2920      	cmp	r1, #32
20002e0c:	f000 8114 	beq.w	20003038 <_vsnprintf+0x464>
20002e10:	461a      	mov	r2, r3
20002e12:	f002 040f 	and.w	r4, r2, #15
20002e16:	4623      	mov	r3, r4
20002e18:	2c09      	cmp	r4, #9
20002e1a:	bf94      	ite	ls
20002e1c:	3330      	addls	r3, #48	@ 0x30
20002e1e:	3337      	addhi	r3, #55	@ 0x37
20002e20:	2a0f      	cmp	r2, #15
20002e22:	f807 3b01 	strb.w	r3, [r7], #1
20002e26:	f101 0101 	add.w	r1, r1, #1
20002e2a:	ea4f 1312 	mov.w	r3, r2, lsr #4
20002e2e:	d8ec      	bhi.n	20002e0a <_vsnprintf+0x236>
20002e30:	e102      	b.n	20003038 <_vsnprintf+0x464>
20002e32:	bf00      	nop
20002e34:	20002bd5 	.word	0x20002bd5
20002e38:	2000557c 	.word	0x2000557c
20002e3c:	20001f15 	.word	0x20001f15
20002e40:	990a      	ldr	r1, [sp, #40]	@ 0x28
20002e42:	9809      	ldr	r0, [sp, #36]	@ 0x24
20002e44:	f851 5b04 	ldr.w	r5, [r1], #4
20002e48:	7840      	ldrb	r0, [r0, #1]
20002e4a:	2d00      	cmp	r5, #0
20002e4c:	e9cd 2109 	strd	r2, r1, [sp, #36]	@ 0x24
20002e50:	bfbc      	itt	lt
20002e52:	f043 0302 	orrlt.w	r3, r3, #2
20002e56:	426d      	neglt	r5, r5
20002e58:	3201      	adds	r2, #1
20002e5a:	e702      	b.n	20002c62 <_vsnprintf+0x8e>
20002e5c:	4642      	mov	r2, r8
20002e5e:	464b      	mov	r3, r9
20002e60:	4651      	mov	r1, sl
20002e62:	f108 0801 	add.w	r8, r8, #1
20002e66:	47d8      	blx	fp
20002e68:	e6d2      	b.n	20002c10 <_vsnprintf+0x3c>
20002e6a:	990a      	ldr	r1, [sp, #40]	@ 0x28
20002e6c:	2e00      	cmp	r6, #0
20002e6e:	f851 7b04 	ldr.w	r7, [r1], #4
20002e72:	bf18      	it	ne
20002e74:	4632      	movne	r2, r6
20002e76:	7838      	ldrb	r0, [r7, #0]
20002e78:	bf08      	it	eq
20002e7a:	f04f 32ff 	moveq.w	r2, #4294967295
20002e7e:	2800      	cmp	r0, #0
20002e80:	f000 837b 	beq.w	2000357a <_vsnprintf+0x9a6>
20002e84:	18bc      	adds	r4, r7, r2
20002e86:	46a4      	mov	ip, r4
20002e88:	463a      	mov	r2, r7
20002e8a:	e004      	b.n	20002e96 <_vsnprintf+0x2c2>
20002e8c:	f812 4f01 	ldrb.w	r4, [r2, #1]!
20002e90:	2c00      	cmp	r4, #0
20002e92:	f000 813f 	beq.w	20003114 <_vsnprintf+0x540>
20002e96:	4594      	cmp	ip, r2
20002e98:	d1f8      	bne.n	20002e8c <_vsnprintf+0x2b8>
20002e9a:	4664      	mov	r4, ip
20002e9c:	1be4      	subs	r4, r4, r7
20002e9e:	055a      	lsls	r2, r3, #21
20002ea0:	f140 8122 	bpl.w	200030e8 <_vsnprintf+0x514>
20002ea4:	42b4      	cmp	r4, r6
20002ea6:	bf28      	it	cs
20002ea8:	4634      	movcs	r4, r6
20002eaa:	f013 0302 	ands.w	r3, r3, #2
20002eae:	f000 8288 	beq.w	200033c2 <_vsnprintf+0x7ee>
20002eb2:	2302      	movs	r3, #2
20002eb4:	e9cd 510a 	strd	r5, r1, [sp, #40]	@ 0x28
20002eb8:	4642      	mov	r2, r8
20002eba:	461d      	mov	r5, r3
20002ebc:	4446      	add	r6, r8
20002ebe:	e008      	b.n	20002ed2 <_vsnprintf+0x2fe>
20002ec0:	464b      	mov	r3, r9
20002ec2:	4651      	mov	r1, sl
20002ec4:	47d8      	blx	fp
20002ec6:	f817 0f01 	ldrb.w	r0, [r7, #1]!
20002eca:	f108 0801 	add.w	r8, r8, #1
20002ece:	b110      	cbz	r0, 20002ed6 <_vsnprintf+0x302>
20002ed0:	4642      	mov	r2, r8
20002ed2:	4546      	cmp	r6, r8
20002ed4:	d1f4      	bne.n	20002ec0 <_vsnprintf+0x2ec>
20002ed6:	462b      	mov	r3, r5
20002ed8:	990b      	ldr	r1, [sp, #44]	@ 0x2c
20002eda:	9d0a      	ldr	r5, [sp, #40]	@ 0x28
20002edc:	2b00      	cmp	r3, #0
20002ede:	f040 8141 	bne.w	20003164 <_vsnprintf+0x590>
20002ee2:	910a      	str	r1, [sp, #40]	@ 0x28
20002ee4:	e694      	b.n	20002c10 <_vsnprintf+0x3c>
20002ee6:	9909      	ldr	r1, [sp, #36]	@ 0x24
20002ee8:	7848      	ldrb	r0, [r1, #1]
20002eea:	286c      	cmp	r0, #108	@ 0x6c
20002eec:	f47f aeec 	bne.w	20002cc8 <_vsnprintf+0xf4>
20002ef0:	460a      	mov	r2, r1
20002ef2:	7888      	ldrb	r0, [r1, #2]
20002ef4:	f443 7340 	orr.w	r3, r3, #768	@ 0x300
20002ef8:	3203      	adds	r2, #3
20002efa:	e6e8      	b.n	20002cce <_vsnprintf+0xfa>
20002efc:	9909      	ldr	r1, [sp, #36]	@ 0x24
20002efe:	f443 7300 	orr.w	r3, r3, #512	@ 0x200
20002f02:	7848      	ldrb	r0, [r1, #1]
20002f04:	3201      	adds	r2, #1
20002f06:	e6e2      	b.n	20002cce <_vsnprintf+0xfa>
20002f08:	9909      	ldr	r1, [sp, #36]	@ 0x24
20002f0a:	7848      	ldrb	r0, [r1, #1]
20002f0c:	2868      	cmp	r0, #104	@ 0x68
20002f0e:	f000 8103 	beq.w	20003118 <_vsnprintf+0x544>
20002f12:	f043 0380 	orr.w	r3, r3, #128	@ 0x80
20002f16:	3201      	adds	r2, #1
20002f18:	e6d9      	b.n	20002cce <_vsnprintf+0xfa>
20002f1a:	2867      	cmp	r0, #103	@ 0x67
20002f1c:	f000 80d9 	beq.w	200030d2 <_vsnprintf+0x4fe>
20002f20:	2847      	cmp	r0, #71	@ 0x47
20002f22:	f000 80dc 	beq.w	200030de <_vsnprintf+0x50a>
20002f26:	2845      	cmp	r0, #69	@ 0x45
20002f28:	f000 80db 	beq.w	200030e2 <_vsnprintf+0x50e>
20002f2c:	e9cd 5303 	strd	r5, r3, [sp, #12]
20002f30:	9b0a      	ldr	r3, [sp, #40]	@ 0x28
20002f32:	9602      	str	r6, [sp, #8]
20002f34:	3307      	adds	r3, #7
20002f36:	f023 0307 	bic.w	r3, r3, #7
20002f3a:	461c      	mov	r4, r3
20002f3c:	4642      	mov	r2, r8
20002f3e:	e8f4 6702 	ldrd	r6, r7, [r4], #8
20002f42:	464b      	mov	r3, r9
20002f44:	4651      	mov	r1, sl
20002f46:	4658      	mov	r0, fp
20002f48:	e9cd 6700 	strd	r6, r7, [sp]
20002f4c:	940a      	str	r4, [sp, #40]	@ 0x28
20002f4e:	f7ff fb87 	bl	20002660 <_etoa>
20002f52:	4680      	mov	r8, r0
20002f54:	e65c      	b.n	20002c10 <_vsnprintf+0x3c>
20002f56:	2846      	cmp	r0, #70	@ 0x46
20002f58:	bf08      	it	eq
20002f5a:	f043 0320 	orreq.w	r3, r3, #32
20002f5e:	e9cd 5303 	strd	r5, r3, [sp, #12]
20002f62:	9b0a      	ldr	r3, [sp, #40]	@ 0x28
20002f64:	9602      	str	r6, [sp, #8]
20002f66:	3307      	adds	r3, #7
20002f68:	f023 0307 	bic.w	r3, r3, #7
20002f6c:	461c      	mov	r4, r3
20002f6e:	4642      	mov	r2, r8
20002f70:	e8f4 6702 	ldrd	r6, r7, [r4], #8
20002f74:	464b      	mov	r3, r9
20002f76:	4651      	mov	r1, sl
20002f78:	4658      	mov	r0, fp
20002f7a:	e9cd 6700 	strd	r6, r7, [sp]
20002f7e:	940a      	str	r4, [sp, #40]	@ 0x28
20002f80:	f7ff f90e 	bl	200021a0 <_ftoa>
20002f84:	4680      	mov	r8, r0
20002f86:	e643      	b.n	20002c10 <_vsnprintf+0x3c>
20002f88:	4642      	mov	r2, r8
20002f8a:	464b      	mov	r3, r9
20002f8c:	4651      	mov	r1, sl
20002f8e:	2025      	movs	r0, #37	@ 0x25
20002f90:	f108 0801 	add.w	r8, r8, #1
20002f94:	47d8      	blx	fp
20002f96:	e63b      	b.n	20002c10 <_vsnprintf+0x3c>
20002f98:	9a0a      	ldr	r2, [sp, #40]	@ 0x28
20002f9a:	0799      	lsls	r1, r3, #30
20002f9c:	f102 0404 	add.w	r4, r2, #4
20002fa0:	f108 0601 	add.w	r6, r8, #1
20002fa4:	f140 80c6 	bpl.w	20003134 <_vsnprintf+0x560>
20002fa8:	7810      	ldrb	r0, [r2, #0]
20002faa:	464b      	mov	r3, r9
20002fac:	4642      	mov	r2, r8
20002fae:	4651      	mov	r1, sl
20002fb0:	47d8      	blx	fp
20002fb2:	2d01      	cmp	r5, #1
20002fb4:	bf88      	it	hi
20002fb6:	44a8      	addhi	r8, r5
20002fb8:	f240 81bd 	bls.w	20003336 <_vsnprintf+0x762>
20002fbc:	4632      	mov	r2, r6
20002fbe:	464b      	mov	r3, r9
20002fc0:	4651      	mov	r1, sl
20002fc2:	2020      	movs	r0, #32
20002fc4:	3601      	adds	r6, #1
20002fc6:	47d8      	blx	fp
20002fc8:	4546      	cmp	r6, r8
20002fca:	d1f7      	bne.n	20002fbc <_vsnprintf+0x3e8>
20002fcc:	940a      	str	r4, [sp, #40]	@ 0x28
20002fce:	e61f      	b.n	20002c10 <_vsnprintf+0x3c>
20002fd0:	286f      	cmp	r0, #111	@ 0x6f
20002fd2:	f000 8081 	beq.w	200030d8 <_vsnprintf+0x504>
20002fd6:	f240 8248 	bls.w	2000346a <_vsnprintf+0x896>
20002fda:	2878      	cmp	r0, #120	@ 0x78
20002fdc:	f000 8190 	beq.w	20003300 <_vsnprintf+0x72c>
20002fe0:	270a      	movs	r7, #10
20002fe2:	f023 0310 	bic.w	r3, r3, #16
20002fe6:	46bc      	mov	ip, r7
20002fe8:	e041      	b.n	2000306e <_vsnprintf+0x49a>
20002fea:	2600      	movs	r6, #0
20002fec:	eb06 0686 	add.w	r6, r6, r6, lsl #2
20002ff0:	eb00 0046 	add.w	r0, r0, r6, lsl #1
20002ff4:	f1a0 0630 	sub.w	r6, r0, #48	@ 0x30
20002ff8:	f811 0f01 	ldrb.w	r0, [r1, #1]!
20002ffc:	f1a0 0230 	sub.w	r2, r0, #48	@ 0x30
20003000:	2a09      	cmp	r2, #9
20003002:	d9f3      	bls.n	20002fec <_vsnprintf+0x418>
20003004:	460a      	mov	r2, r1
20003006:	9109      	str	r1, [sp, #36]	@ 0x24
20003008:	3201      	adds	r2, #1
2000300a:	e62e      	b.n	20002c6a <_vsnprintf+0x96>
2000300c:	e9dd 2109 	ldrd	r2, r1, [sp, #36]	@ 0x24
20003010:	f851 6b04 	ldr.w	r6, [r1], #4
20003014:	7890      	ldrb	r0, [r2, #2]
20003016:	3202      	adds	r2, #2
20003018:	9209      	str	r2, [sp, #36]	@ 0x24
2000301a:	910a      	str	r1, [sp, #40]	@ 0x28
2000301c:	3201      	adds	r2, #1
2000301e:	ea26 76e6 	bic.w	r6, r6, r6, asr #31
20003022:	e622      	b.n	20002c6a <_vsnprintf+0x96>
20003024:	f023 0010 	bic.w	r0, r3, #16
20003028:	f413 6280 	ands.w	r2, r3, #1024	@ 0x400
2000302c:	f040 0021 	orr.w	r0, r0, #33	@ 0x21
20003030:	f43f aee7 	beq.w	20002e02 <_vsnprintf+0x22e>
20003034:	ab12      	add	r3, sp, #72	@ 0x48
20003036:	930b      	str	r3, [sp, #44]	@ 0x2c
20003038:	9b0b      	ldr	r3, [sp, #44]	@ 0x2c
2000303a:	9006      	str	r0, [sp, #24]
2000303c:	9300      	str	r3, [sp, #0]
2000303e:	2308      	movs	r3, #8
20003040:	2010      	movs	r0, #16
20003042:	9305      	str	r3, [sp, #20]
20003044:	2300      	movs	r3, #0
20003046:	4642      	mov	r2, r8
20003048:	e9cd 3002 	strd	r3, r0, [sp, #8]
2000304c:	9101      	str	r1, [sp, #4]
2000304e:	464b      	mov	r3, r9
20003050:	4651      	mov	r1, sl
20003052:	4658      	mov	r0, fp
20003054:	9604      	str	r6, [sp, #16]
20003056:	f7fe ffad 	bl	20001fb4 <_ntoa_format>
2000305a:	950a      	str	r5, [sp, #40]	@ 0x28
2000305c:	4680      	mov	r8, r0
2000305e:	e5d7      	b.n	20002c10 <_vsnprintf+0x3c>
20003060:	2858      	cmp	r0, #88	@ 0x58
20003062:	d062      	beq.n	2000312a <_vsnprintf+0x556>
20003064:	2862      	cmp	r0, #98	@ 0x62
20003066:	f040 808f 	bne.w	20003188 <_vsnprintf+0x5b4>
2000306a:	2702      	movs	r7, #2
2000306c:	46bc      	mov	ip, r7
2000306e:	f413 6080 	ands.w	r0, r3, #1024	@ 0x400
20003072:	f000 80dd 	beq.w	20003230 <_vsnprintf+0x65c>
20003076:	f023 030d 	bic.w	r3, r3, #13
2000307a:	f413 7200 	ands.w	r2, r3, #512	@ 0x200
2000307e:	f040 8181 	bne.w	20003384 <_vsnprintf+0x7b0>
20003082:	990a      	ldr	r1, [sp, #40]	@ 0x28
20003084:	1d0f      	adds	r7, r1, #4
20003086:	f413 7180 	ands.w	r1, r3, #256	@ 0x100
2000308a:	f040 8237 	bne.w	200034fc <_vsnprintf+0x928>
2000308e:	065c      	lsls	r4, r3, #25
20003090:	9a0a      	ldr	r2, [sp, #40]	@ 0x28
20003092:	f140 813b 	bpl.w	2000330c <_vsnprintf+0x738>
20003096:	7812      	ldrb	r2, [r2, #0]
20003098:	2a00      	cmp	r2, #0
2000309a:	f040 814e 	bne.w	2000333a <_vsnprintf+0x766>
2000309e:	f023 0310 	bic.w	r3, r3, #16
200030a2:	2800      	cmp	r0, #0
200030a4:	f000 8149 	beq.w	2000333a <_vsnprintf+0x766>
200030a8:	4611      	mov	r1, r2
200030aa:	aa12      	add	r2, sp, #72	@ 0x48
200030ac:	920b      	str	r2, [sp, #44]	@ 0x2c
200030ae:	e9cd 5305 	strd	r5, r3, [sp, #20]
200030b2:	e9cd c603 	strd	ip, r6, [sp, #12]
200030b6:	9101      	str	r1, [sp, #4]
200030b8:	9b0b      	ldr	r3, [sp, #44]	@ 0x2c
200030ba:	4642      	mov	r2, r8
200030bc:	9300      	str	r3, [sp, #0]
200030be:	2300      	movs	r3, #0
200030c0:	4651      	mov	r1, sl
200030c2:	9302      	str	r3, [sp, #8]
200030c4:	4658      	mov	r0, fp
200030c6:	464b      	mov	r3, r9
200030c8:	f7fe ff74 	bl	20001fb4 <_ntoa_format>
200030cc:	970a      	str	r7, [sp, #40]	@ 0x28
200030ce:	4680      	mov	r8, r0
200030d0:	e59e      	b.n	20002c10 <_vsnprintf+0x3c>
200030d2:	f443 6300 	orr.w	r3, r3, #2048	@ 0x800
200030d6:	e729      	b.n	20002f2c <_vsnprintf+0x358>
200030d8:	2708      	movs	r7, #8
200030da:	46bc      	mov	ip, r7
200030dc:	e7c7      	b.n	2000306e <_vsnprintf+0x49a>
200030de:	f443 6300 	orr.w	r3, r3, #2048	@ 0x800
200030e2:	f043 0320 	orr.w	r3, r3, #32
200030e6:	e721      	b.n	20002f2c <_vsnprintf+0x358>
200030e8:	f013 0302 	ands.w	r3, r3, #2
200030ec:	f000 818e 	beq.w	2000340c <_vsnprintf+0x838>
200030f0:	2302      	movs	r3, #2
200030f2:	950a      	str	r5, [sp, #40]	@ 0x28
200030f4:	461e      	mov	r6, r3
200030f6:	460d      	mov	r5, r1
200030f8:	4642      	mov	r2, r8
200030fa:	464b      	mov	r3, r9
200030fc:	4651      	mov	r1, sl
200030fe:	47d8      	blx	fp
20003100:	f817 0f01 	ldrb.w	r0, [r7, #1]!
20003104:	f108 0801 	add.w	r8, r8, #1
20003108:	2800      	cmp	r0, #0
2000310a:	d1f5      	bne.n	200030f8 <_vsnprintf+0x524>
2000310c:	4629      	mov	r1, r5
2000310e:	4633      	mov	r3, r6
20003110:	9d0a      	ldr	r5, [sp, #40]	@ 0x28
20003112:	e6e3      	b.n	20002edc <_vsnprintf+0x308>
20003114:	1bd4      	subs	r4, r2, r7
20003116:	e6c2      	b.n	20002e9e <_vsnprintf+0x2ca>
20003118:	460a      	mov	r2, r1
2000311a:	7888      	ldrb	r0, [r1, #2]
2000311c:	f043 03c0 	orr.w	r3, r3, #192	@ 0xc0
20003120:	3203      	adds	r2, #3
20003122:	e5d4      	b.n	20002cce <_vsnprintf+0xfa>
20003124:	4604      	mov	r4, r0
20003126:	4680      	mov	r8, r0
20003128:	e646      	b.n	20002db8 <_vsnprintf+0x1e4>
2000312a:	2710      	movs	r7, #16
2000312c:	f043 0320 	orr.w	r3, r3, #32
20003130:	46bc      	mov	ip, r7
20003132:	e79c      	b.n	2000306e <_vsnprintf+0x49a>
20003134:	2d01      	cmp	r5, #1
20003136:	f240 80f8 	bls.w	2000332a <_vsnprintf+0x756>
2000313a:	4646      	mov	r6, r8
2000313c:	f108 37ff 	add.w	r7, r8, #4294967295
20003140:	442f      	add	r7, r5
20003142:	4632      	mov	r2, r6
20003144:	464b      	mov	r3, r9
20003146:	4651      	mov	r1, sl
20003148:	2020      	movs	r0, #32
2000314a:	3601      	adds	r6, #1
2000314c:	47d8      	blx	fp
2000314e:	42be      	cmp	r6, r7
20003150:	d1f7      	bne.n	20003142 <_vsnprintf+0x56e>
20003152:	9b0a      	ldr	r3, [sp, #40]	@ 0x28
20003154:	4632      	mov	r2, r6
20003156:	7818      	ldrb	r0, [r3, #0]
20003158:	4651      	mov	r1, sl
2000315a:	464b      	mov	r3, r9
2000315c:	47d8      	blx	fp
2000315e:	44a8      	add	r8, r5
20003160:	940a      	str	r4, [sp, #40]	@ 0x28
20003162:	e555      	b.n	20002c10 <_vsnprintf+0x3c>
20003164:	4646      	mov	r6, r8
20003166:	42a5      	cmp	r5, r4
20003168:	f67f aebb 	bls.w	20002ee2 <_vsnprintf+0x30e>
2000316c:	44a8      	add	r8, r5
2000316e:	eba8 0804 	sub.w	r8, r8, r4
20003172:	460c      	mov	r4, r1
20003174:	4632      	mov	r2, r6
20003176:	464b      	mov	r3, r9
20003178:	4651      	mov	r1, sl
2000317a:	2020      	movs	r0, #32
2000317c:	3601      	adds	r6, #1
2000317e:	47d8      	blx	fp
20003180:	4546      	cmp	r6, r8
20003182:	d1f7      	bne.n	20003174 <_vsnprintf+0x5a0>
20003184:	4621      	mov	r1, r4
20003186:	e6ac      	b.n	20002ee2 <_vsnprintf+0x30e>
20003188:	f413 6280 	ands.w	r2, r3, #1024	@ 0x400
2000318c:	f000 80bb 	beq.w	20003306 <_vsnprintf+0x732>
20003190:	f44f 6280 	mov.w	r2, #1024	@ 0x400
20003194:	f023 0c11 	bic.w	ip, r3, #17
20003198:	f41c 7700 	ands.w	r7, ip, #512	@ 0x200
2000319c:	9b0a      	ldr	r3, [sp, #40]	@ 0x28
2000319e:	d14a      	bne.n	20003236 <_vsnprintf+0x662>
200031a0:	f41c 7080 	ands.w	r0, ip, #256	@ 0x100
200031a4:	f103 0404 	add.w	r4, r3, #4
200031a8:	f040 8134 	bne.w	20003414 <_vsnprintf+0x840>
200031ac:	f01c 0f40 	tst.w	ip, #64	@ 0x40
200031b0:	f040 80a3 	bne.w	200032fa <_vsnprintf+0x726>
200031b4:	f01c 0f80 	tst.w	ip, #128	@ 0x80
200031b8:	f000 81d3 	beq.w	20003562 <_vsnprintf+0x98e>
200031bc:	f9b3 1000 	ldrsh.w	r1, [r3]
200031c0:	ea81 77e1 	eor.w	r7, r1, r1, asr #31
200031c4:	eba7 77e1 	sub.w	r7, r7, r1, asr #31
200031c8:	b2bf      	uxth	r7, r7
200031ca:	0fcb      	lsrs	r3, r1, #31
200031cc:	2900      	cmp	r1, #0
200031ce:	f000 8156 	beq.w	2000347e <_vsnprintf+0x8aa>
200031d2:	463a      	mov	r2, r7
200031d4:	a912      	add	r1, sp, #72	@ 0x48
200031d6:	460f      	mov	r7, r1
200031d8:	f8df e3d8 	ldr.w	lr, [pc, #984]	@ 200035b4 <_vsnprintf+0x9e0>
200031dc:	910b      	str	r1, [sp, #44]	@ 0x2c
200031de:	930a      	str	r3, [sp, #40]	@ 0x28
200031e0:	950c      	str	r5, [sp, #48]	@ 0x30
200031e2:	e001      	b.n	200031e8 <_vsnprintf+0x614>
200031e4:	2820      	cmp	r0, #32
200031e6:	d00f      	beq.n	20003208 <_vsnprintf+0x634>
200031e8:	4615      	mov	r5, r2
200031ea:	fbae 1302 	umull	r1, r3, lr, r2
200031ee:	08db      	lsrs	r3, r3, #3
200031f0:	eb03 0183 	add.w	r1, r3, r3, lsl #2
200031f4:	eba2 0141 	sub.w	r1, r2, r1, lsl #1
200031f8:	3130      	adds	r1, #48	@ 0x30
200031fa:	2d09      	cmp	r5, #9
200031fc:	461a      	mov	r2, r3
200031fe:	f100 0001 	add.w	r0, r0, #1
20003202:	f807 1b01 	strb.w	r1, [r7], #1
20003206:	d8ed      	bhi.n	200031e4 <_vsnprintf+0x610>
20003208:	9b0a      	ldr	r3, [sp, #40]	@ 0x28
2000320a:	9d0c      	ldr	r5, [sp, #48]	@ 0x30
2000320c:	e9cd 5c05 	strd	r5, ip, [sp, #20]
20003210:	e9cd 0301 	strd	r0, r3, [sp, #4]
20003214:	9604      	str	r6, [sp, #16]
20003216:	9b0b      	ldr	r3, [sp, #44]	@ 0x2c
20003218:	4642      	mov	r2, r8
2000321a:	9300      	str	r3, [sp, #0]
2000321c:	230a      	movs	r3, #10
2000321e:	4651      	mov	r1, sl
20003220:	9303      	str	r3, [sp, #12]
20003222:	4658      	mov	r0, fp
20003224:	464b      	mov	r3, r9
20003226:	f7fe fec5 	bl	20001fb4 <_ntoa_format>
2000322a:	940a      	str	r4, [sp, #40]	@ 0x28
2000322c:	4680      	mov	r8, r0
2000322e:	e4ef      	b.n	20002c10 <_vsnprintf+0x3c>
20003230:	f023 030c 	bic.w	r3, r3, #12
20003234:	e721      	b.n	2000307a <_vsnprintf+0x4a6>
20003236:	3307      	adds	r3, #7
20003238:	f023 0307 	bic.w	r3, r3, #7
2000323c:	4619      	mov	r1, r3
2000323e:	4608      	mov	r0, r1
20003240:	685b      	ldr	r3, [r3, #4]
20003242:	f850 1b08 	ldr.w	r1, [r0], #8
20003246:	0fdf      	lsrs	r7, r3, #31
20003248:	900a      	str	r0, [sp, #40]	@ 0x28
2000324a:	ea51 0003 	orrs.w	r0, r1, r3
2000324e:	d162      	bne.n	20003316 <_vsnprintf+0x742>
20003250:	2a00      	cmp	r2, #0
20003252:	f040 819f 	bne.w	20003594 <_vsnprintf+0x9c0>
20003256:	4613      	mov	r3, r2
20003258:	4611      	mov	r1, r2
2000325a:	aa12      	add	r2, sp, #72	@ 0x48
2000325c:	e9cd 750c 	strd	r7, r5, [sp, #48]	@ 0x30
20003260:	2000      	movs	r0, #0
20003262:	4615      	mov	r5, r2
20003264:	e9cd 680e 	strd	r6, r8, [sp, #56]	@ 0x38
20003268:	f8df e348 	ldr.w	lr, [pc, #840]	@ 200035b4 <_vsnprintf+0x9e0>
2000326c:	920b      	str	r2, [sp, #44]	@ 0x2c
2000326e:	e001      	b.n	20003274 <_vsnprintf+0x6a0>
20003270:	2820      	cmp	r0, #32
20003272:	d02d      	beq.n	200032d0 <_vsnprintf+0x6fc>
20003274:	185a      	adds	r2, r3, r1
20003276:	f142 0200 	adc.w	r2, r2, #0
2000327a:	fbae 7802 	umull	r7, r8, lr, r2
2000327e:	f028 0703 	bic.w	r7, r8, #3
20003282:	eb07 0798 	add.w	r7, r7, r8, lsr #2
20003286:	1bd2      	subs	r2, r2, r7
20003288:	461e      	mov	r6, r3
2000328a:	1a9b      	subs	r3, r3, r2
2000328c:	f161 0700 	sbc.w	r7, r1, #0
20003290:	460c      	mov	r4, r1
20003292:	f04f 31cc 	mov.w	r1, #3435973836	@ 0xcccccccc
20003296:	fb01 f103 	mul.w	r1, r1, r3
2000329a:	fb0e 1107 	mla	r1, lr, r7, r1
2000329e:	fba3 730e 	umull	r7, r3, r3, lr
200032a2:	4419      	add	r1, r3
200032a4:	2305      	movs	r3, #5
200032a6:	f007 0801 	and.w	r8, r7, #1
200032aa:	fba8 3803 	umull	r3, r8, r8, r3
200032ae:	189b      	adds	r3, r3, r2
200032b0:	2e0a      	cmp	r6, #10
200032b2:	f103 0330 	add.w	r3, r3, #48	@ 0x30
200032b6:	ea4f 0757 	mov.w	r7, r7, lsr #1
200032ba:	f174 0400 	sbcs.w	r4, r4, #0
200032be:	f805 3b01 	strb.w	r3, [r5], #1
200032c2:	f100 0001 	add.w	r0, r0, #1
200032c6:	ea47 73c1 	orr.w	r3, r7, r1, lsl #31
200032ca:	ea4f 0151 	mov.w	r1, r1, lsr #1
200032ce:	d2cf      	bcs.n	20003270 <_vsnprintf+0x69c>
200032d0:	e9dd 750c 	ldrd	r7, r5, [sp, #48]	@ 0x30
200032d4:	e9dd 680e 	ldrd	r6, r8, [sp, #56]	@ 0x38
200032d8:	9b0b      	ldr	r3, [sp, #44]	@ 0x2c
200032da:	4642      	mov	r2, r8
200032dc:	9300      	str	r3, [sp, #0]
200032de:	230a      	movs	r3, #10
200032e0:	e9cd 5c05 	strd	r5, ip, [sp, #20]
200032e4:	e9cd 0701 	strd	r0, r7, [sp, #4]
200032e8:	9604      	str	r6, [sp, #16]
200032ea:	9303      	str	r3, [sp, #12]
200032ec:	464b      	mov	r3, r9
200032ee:	4651      	mov	r1, sl
200032f0:	4658      	mov	r0, fp
200032f2:	f7fe fe5f 	bl	20001fb4 <_ntoa_format>
200032f6:	4680      	mov	r8, r0
200032f8:	e48a      	b.n	20002c10 <_vsnprintf+0x3c>
200032fa:	7819      	ldrb	r1, [r3, #0]
200032fc:	460f      	mov	r7, r1
200032fe:	e764      	b.n	200031ca <_vsnprintf+0x5f6>
20003300:	2710      	movs	r7, #16
20003302:	46bc      	mov	ip, r7
20003304:	e6b3      	b.n	2000306e <_vsnprintf+0x49a>
20003306:	f023 0c10 	bic.w	ip, r3, #16
2000330a:	e745      	b.n	20003198 <_vsnprintf+0x5c4>
2000330c:	061c      	lsls	r4, r3, #24
2000330e:	bf4c      	ite	mi
20003310:	8812      	ldrhmi	r2, [r2, #0]
20003312:	6812      	ldrpl	r2, [r2, #0]
20003314:	e6c0      	b.n	20003098 <_vsnprintf+0x4c4>
20003316:	460a      	mov	r2, r1
20003318:	1e19      	subs	r1, r3, #0
2000331a:	db01      	blt.n	20003320 <_vsnprintf+0x74c>
2000331c:	4613      	mov	r3, r2
2000331e:	e79c      	b.n	2000325a <_vsnprintf+0x686>
20003320:	4252      	negs	r2, r2
20003322:	4613      	mov	r3, r2
20003324:	eb61 0141 	sbc.w	r1, r1, r1, lsl #1
20003328:	e797      	b.n	2000325a <_vsnprintf+0x686>
2000332a:	4613      	mov	r3, r2
2000332c:	4651      	mov	r1, sl
2000332e:	7818      	ldrb	r0, [r3, #0]
20003330:	4642      	mov	r2, r8
20003332:	464b      	mov	r3, r9
20003334:	47d8      	blx	fp
20003336:	46b0      	mov	r8, r6
20003338:	e648      	b.n	20002fcc <_vsnprintf+0x3f8>
2000333a:	f013 0f20 	tst.w	r3, #32
2000333e:	bf14      	ite	ne
20003340:	2041      	movne	r0, #65	@ 0x41
20003342:	2061      	moveq	r0, #97	@ 0x61
20003344:	ac12      	add	r4, sp, #72	@ 0x48
20003346:	46a6      	mov	lr, r4
20003348:	940b      	str	r4, [sp, #44]	@ 0x2c
2000334a:	930a      	str	r3, [sp, #40]	@ 0x28
2000334c:	f1a0 040a 	sub.w	r4, r0, #10
20003350:	950c      	str	r5, [sp, #48]	@ 0x30
20003352:	e002      	b.n	2000335a <_vsnprintf+0x786>
20003354:	2920      	cmp	r1, #32
20003356:	d012      	beq.n	2000337e <_vsnprintf+0x7aa>
20003358:	462a      	mov	r2, r5
2000335a:	fbb2 f5fc 	udiv	r5, r2, ip
2000335e:	fb0c 2015 	mls	r0, ip, r5, r2
20003362:	b2c3      	uxtb	r3, r0
20003364:	2809      	cmp	r0, #9
20003366:	f103 0030 	add.w	r0, r3, #48	@ 0x30
2000336a:	bf8a      	itet	hi
2000336c:	191b      	addhi	r3, r3, r4
2000336e:	b2c3      	uxtbls	r3, r0
20003370:	b2db      	uxtbhi	r3, r3
20003372:	4562      	cmp	r2, ip
20003374:	f80e 3b01 	strb.w	r3, [lr], #1
20003378:	f101 0101 	add.w	r1, r1, #1
2000337c:	d2ea      	bcs.n	20003354 <_vsnprintf+0x780>
2000337e:	9b0a      	ldr	r3, [sp, #40]	@ 0x28
20003380:	9d0c      	ldr	r5, [sp, #48]	@ 0x30
20003382:	e694      	b.n	200030ae <_vsnprintf+0x4da>
20003384:	9a0a      	ldr	r2, [sp, #40]	@ 0x28
20003386:	3207      	adds	r2, #7
20003388:	f022 0207 	bic.w	r2, r2, #7
2000338c:	6851      	ldr	r1, [r2, #4]
2000338e:	f852 4b08 	ldr.w	r4, [r2], #8
20003392:	468e      	mov	lr, r1
20003394:	920a      	str	r2, [sp, #40]	@ 0x28
20003396:	ea54 0201 	orrs.w	r2, r4, r1
2000339a:	d176      	bne.n	2000348a <_vsnprintf+0x8b6>
2000339c:	f023 0310 	bic.w	r3, r3, #16
200033a0:	2800      	cmp	r0, #0
200033a2:	d072      	beq.n	2000348a <_vsnprintf+0x8b6>
200033a4:	2200      	movs	r2, #0
200033a6:	4611      	mov	r1, r2
200033a8:	aa12      	add	r2, sp, #72	@ 0x48
200033aa:	920b      	str	r2, [sp, #44]	@ 0x2c
200033ac:	e9cd 5305 	strd	r5, r3, [sp, #20]
200033b0:	9b0b      	ldr	r3, [sp, #44]	@ 0x2c
200033b2:	4642      	mov	r2, r8
200033b4:	9300      	str	r3, [sp, #0]
200033b6:	2300      	movs	r3, #0
200033b8:	e9cd c603 	strd	ip, r6, [sp, #12]
200033bc:	9101      	str	r1, [sp, #4]
200033be:	9302      	str	r3, [sp, #8]
200033c0:	e794      	b.n	200032ec <_vsnprintf+0x718>
200033c2:	42a5      	cmp	r5, r4
200033c4:	bf98      	it	ls
200033c6:	3401      	addls	r4, #1
200033c8:	f67f ad74 	bls.w	20002eb4 <_vsnprintf+0x2e0>
200033cc:	f44f 6380 	mov.w	r3, #1024	@ 0x400
200033d0:	e9cd 750a 	strd	r7, r5, [sp, #40]	@ 0x28
200033d4:	eb05 0208 	add.w	r2, r5, r8
200033d8:	461f      	mov	r7, r3
200033da:	460d      	mov	r5, r1
200033dc:	1b14      	subs	r4, r2, r4
200033de:	4642      	mov	r2, r8
200033e0:	464b      	mov	r3, r9
200033e2:	4651      	mov	r1, sl
200033e4:	2020      	movs	r0, #32
200033e6:	f108 0801 	add.w	r8, r8, #1
200033ea:	47d8      	blx	fp
200033ec:	45a0      	cmp	r8, r4
200033ee:	d1f6      	bne.n	200033de <_vsnprintf+0x80a>
200033f0:	463b      	mov	r3, r7
200033f2:	9f0a      	ldr	r7, [sp, #40]	@ 0x28
200033f4:	4629      	mov	r1, r5
200033f6:	7838      	ldrb	r0, [r7, #0]
200033f8:	9d0b      	ldr	r5, [sp, #44]	@ 0x2c
200033fa:	1c6c      	adds	r4, r5, #1
200033fc:	2800      	cmp	r0, #0
200033fe:	f43f ad70 	beq.w	20002ee2 <_vsnprintf+0x30e>
20003402:	2b00      	cmp	r3, #0
20003404:	f43f ae75 	beq.w	200030f2 <_vsnprintf+0x51e>
20003408:	2300      	movs	r3, #0
2000340a:	e553      	b.n	20002eb4 <_vsnprintf+0x2e0>
2000340c:	42a5      	cmp	r5, r4
2000340e:	d8df      	bhi.n	200033d0 <_vsnprintf+0x7fc>
20003410:	3401      	adds	r4, #1
20003412:	e66e      	b.n	200030f2 <_vsnprintf+0x51e>
20003414:	6819      	ldr	r1, [r3, #0]
20003416:	0fcb      	lsrs	r3, r1, #31
20003418:	2900      	cmp	r1, #0
2000341a:	f000 80a8 	beq.w	2000356e <_vsnprintf+0x99a>
2000341e:	ea81 72e1 	eor.w	r2, r1, r1, asr #31
20003422:	eba2 72e1 	sub.w	r2, r2, r1, asr #31
20003426:	a912      	add	r1, sp, #72	@ 0x48
20003428:	4608      	mov	r0, r1
2000342a:	f8df e188 	ldr.w	lr, [pc, #392]	@ 200035b4 <_vsnprintf+0x9e0>
2000342e:	910b      	str	r1, [sp, #44]	@ 0x2c
20003430:	930a      	str	r3, [sp, #40]	@ 0x28
20003432:	950c      	str	r5, [sp, #48]	@ 0x30
20003434:	e001      	b.n	2000343a <_vsnprintf+0x866>
20003436:	2f20      	cmp	r7, #32
20003438:	d00f      	beq.n	2000345a <_vsnprintf+0x886>
2000343a:	4615      	mov	r5, r2
2000343c:	fbae 1302 	umull	r1, r3, lr, r2
20003440:	08db      	lsrs	r3, r3, #3
20003442:	eb03 0183 	add.w	r1, r3, r3, lsl #2
20003446:	eba2 0141 	sub.w	r1, r2, r1, lsl #1
2000344a:	3130      	adds	r1, #48	@ 0x30
2000344c:	2d09      	cmp	r5, #9
2000344e:	461a      	mov	r2, r3
20003450:	f107 0701 	add.w	r7, r7, #1
20003454:	f800 1b01 	strb.w	r1, [r0], #1
20003458:	d8ed      	bhi.n	20003436 <_vsnprintf+0x862>
2000345a:	9b0a      	ldr	r3, [sp, #40]	@ 0x28
2000345c:	9d0c      	ldr	r5, [sp, #48]	@ 0x30
2000345e:	e9cd 5c05 	strd	r5, ip, [sp, #20]
20003462:	e9cd 7301 	strd	r7, r3, [sp, #4]
20003466:	9604      	str	r6, [sp, #16]
20003468:	e6d5      	b.n	20003216 <_vsnprintf+0x642>
2000346a:	2869      	cmp	r0, #105	@ 0x69
2000346c:	f023 0c10 	bic.w	ip, r3, #16
20003470:	f040 808c 	bne.w	2000358c <_vsnprintf+0x9b8>
20003474:	f413 6280 	ands.w	r2, r3, #1024	@ 0x400
20003478:	f43f ae8e 	beq.w	20003198 <_vsnprintf+0x5c4>
2000347c:	e688      	b.n	20003190 <_vsnprintf+0x5bc>
2000347e:	2a00      	cmp	r2, #0
20003480:	f43f aea8 	beq.w	200031d4 <_vsnprintf+0x600>
20003484:	aa12      	add	r2, sp, #72	@ 0x48
20003486:	920b      	str	r2, [sp, #44]	@ 0x2c
20003488:	e6c0      	b.n	2000320c <_vsnprintf+0x638>
2000348a:	f013 0f20 	tst.w	r3, #32
2000348e:	bf14      	ite	ne
20003490:	2241      	movne	r2, #65	@ 0x41
20003492:	2261      	moveq	r2, #97	@ 0x61
20003494:	2000      	movs	r0, #0
20003496:	a912      	add	r1, sp, #72	@ 0x48
20003498:	3a0a      	subs	r2, #10
2000349a:	e9cd 680e 	strd	r6, r8, [sp, #56]	@ 0x38
2000349e:	e9cd 350c 	strd	r3, r5, [sp, #48]	@ 0x30
200034a2:	f8cd b044 	str.w	fp, [sp, #68]	@ 0x44
200034a6:	4606      	mov	r6, r0
200034a8:	4688      	mov	r8, r1
200034aa:	4675      	mov	r5, lr
200034ac:	4693      	mov	fp, r2
200034ae:	910b      	str	r1, [sp, #44]	@ 0x2c
200034b0:	f8cd c040 	str.w	ip, [sp, #64]	@ 0x40
200034b4:	e003      	b.n	200034be <_vsnprintf+0x8ea>
200034b6:	2e20      	cmp	r6, #32
200034b8:	d017      	beq.n	200034ea <_vsnprintf+0x916>
200034ba:	4604      	mov	r4, r0
200034bc:	460d      	mov	r5, r1
200034be:	4629      	mov	r1, r5
200034c0:	463a      	mov	r2, r7
200034c2:	2300      	movs	r3, #0
200034c4:	4620      	mov	r0, r4
200034c6:	f001 fb6d 	bl	20004ba4 <__aeabi_uldivmod>
200034ca:	b2d2      	uxtb	r2, r2
200034cc:	2a09      	cmp	r2, #9
200034ce:	f102 0330 	add.w	r3, r2, #48	@ 0x30
200034d2:	bf88      	it	hi
200034d4:	eb02 030b 	addhi.w	r3, r2, fp
200034d8:	42bc      	cmp	r4, r7
200034da:	b2db      	uxtb	r3, r3
200034dc:	f175 0500 	sbcs.w	r5, r5, #0
200034e0:	f808 3b01 	strb.w	r3, [r8], #1
200034e4:	f106 0601 	add.w	r6, r6, #1
200034e8:	d2e5      	bcs.n	200034b6 <_vsnprintf+0x8e2>
200034ea:	4631      	mov	r1, r6
200034ec:	e9dd 350c 	ldrd	r3, r5, [sp, #48]	@ 0x30
200034f0:	e9dd cb10 	ldrd	ip, fp, [sp, #64]	@ 0x40
200034f4:	f8dd 803c 	ldr.w	r8, [sp, #60]	@ 0x3c
200034f8:	9e0e      	ldr	r6, [sp, #56]	@ 0x38
200034fa:	e757      	b.n	200033ac <_vsnprintf+0x7d8>
200034fc:	990a      	ldr	r1, [sp, #40]	@ 0x28
200034fe:	6809      	ldr	r1, [r1, #0]
20003500:	b951      	cbnz	r1, 20003518 <_vsnprintf+0x944>
20003502:	f023 0310 	bic.w	r3, r3, #16
20003506:	b138      	cbz	r0, 20003518 <_vsnprintf+0x944>
20003508:	a912      	add	r1, sp, #72	@ 0x48
2000350a:	910b      	str	r1, [sp, #44]	@ 0x2c
2000350c:	e9cd 5305 	strd	r5, r3, [sp, #20]
20003510:	e9cd c603 	strd	ip, r6, [sp, #12]
20003514:	9201      	str	r2, [sp, #4]
20003516:	e5cf      	b.n	200030b8 <_vsnprintf+0x4e4>
20003518:	f013 0f20 	tst.w	r3, #32
2000351c:	bf14      	ite	ne
2000351e:	2041      	movne	r0, #65	@ 0x41
20003520:	2061      	moveq	r0, #97	@ 0x61
20003522:	ac12      	add	r4, sp, #72	@ 0x48
20003524:	46a6      	mov	lr, r4
20003526:	940b      	str	r4, [sp, #44]	@ 0x2c
20003528:	930a      	str	r3, [sp, #40]	@ 0x28
2000352a:	f1a0 040a 	sub.w	r4, r0, #10
2000352e:	950c      	str	r5, [sp, #48]	@ 0x30
20003530:	e002      	b.n	20003538 <_vsnprintf+0x964>
20003532:	2a20      	cmp	r2, #32
20003534:	d012      	beq.n	2000355c <_vsnprintf+0x988>
20003536:	4629      	mov	r1, r5
20003538:	fbb1 f5fc 	udiv	r5, r1, ip
2000353c:	fb0c 1015 	mls	r0, ip, r5, r1
20003540:	b2c3      	uxtb	r3, r0
20003542:	2809      	cmp	r0, #9
20003544:	f103 0030 	add.w	r0, r3, #48	@ 0x30
20003548:	bf8a      	itet	hi
2000354a:	191b      	addhi	r3, r3, r4
2000354c:	b2c3      	uxtbls	r3, r0
2000354e:	b2db      	uxtbhi	r3, r3
20003550:	4561      	cmp	r1, ip
20003552:	f80e 3b01 	strb.w	r3, [lr], #1
20003556:	f102 0201 	add.w	r2, r2, #1
2000355a:	d2ea      	bcs.n	20003532 <_vsnprintf+0x95e>
2000355c:	9b0a      	ldr	r3, [sp, #40]	@ 0x28
2000355e:	9d0c      	ldr	r5, [sp, #48]	@ 0x30
20003560:	e7d4      	b.n	2000350c <_vsnprintf+0x938>
20003562:	6819      	ldr	r1, [r3, #0]
20003564:	ea81 77e1 	eor.w	r7, r1, r1, asr #31
20003568:	eba7 77e1 	sub.w	r7, r7, r1, asr #31
2000356c:	e62d      	b.n	200031ca <_vsnprintf+0x5f6>
2000356e:	2a00      	cmp	r2, #0
20003570:	f43f af59 	beq.w	20003426 <_vsnprintf+0x852>
20003574:	aa12      	add	r2, sp, #72	@ 0x48
20003576:	920b      	str	r2, [sp, #44]	@ 0x2c
20003578:	e771      	b.n	2000345e <_vsnprintf+0x88a>
2000357a:	f413 6480 	ands.w	r4, r3, #1024	@ 0x400
2000357e:	d00d      	beq.n	2000359c <_vsnprintf+0x9c8>
20003580:	f013 0402 	ands.w	r4, r3, #2
20003584:	d012      	beq.n	200035ac <_vsnprintf+0x9d8>
20003586:	4604      	mov	r4, r0
20003588:	4646      	mov	r6, r8
2000358a:	e5ec      	b.n	20003166 <_vsnprintf+0x592>
2000358c:	270a      	movs	r7, #10
2000358e:	4663      	mov	r3, ip
20003590:	46bc      	mov	ip, r7
20003592:	e56c      	b.n	2000306e <_vsnprintf+0x49a>
20003594:	ab12      	add	r3, sp, #72	@ 0x48
20003596:	2000      	movs	r0, #0
20003598:	930b      	str	r3, [sp, #44]	@ 0x2c
2000359a:	e69d      	b.n	200032d8 <_vsnprintf+0x704>
2000359c:	f013 0302 	ands.w	r3, r3, #2
200035a0:	f47f ade0 	bne.w	20003164 <_vsnprintf+0x590>
200035a4:	2d00      	cmp	r5, #0
200035a6:	f47f af13 	bne.w	200033d0 <_vsnprintf+0x7fc>
200035aa:	e49a      	b.n	20002ee2 <_vsnprintf+0x30e>
200035ac:	2d00      	cmp	r5, #0
200035ae:	f47f af0d 	bne.w	200033cc <_vsnprintf+0x7f8>
200035b2:	e496      	b.n	20002ee2 <_vsnprintf+0x30e>
200035b4:	cccccccd 	.word	0xcccccccd

200035b8 <vfctprintf>:
200035b8:	b570      	push	{r4, r5, r6, lr}
200035ba:	4694      	mov	ip, r2
200035bc:	461e      	mov	r6, r3
200035be:	4605      	mov	r5, r0
200035c0:	460c      	mov	r4, r1
200035c2:	b084      	sub	sp, #16
200035c4:	f04f 32ff 	mov.w	r2, #4294967295
200035c8:	4663      	mov	r3, ip
200035ca:	a902      	add	r1, sp, #8
200035cc:	9600      	str	r6, [sp, #0]
200035ce:	4803      	ldr	r0, [pc, #12]	@ (200035dc <vfctprintf+0x24>)
200035d0:	e9cd 5402 	strd	r5, r4, [sp, #8]
200035d4:	f7ff fafe 	bl	20002bd4 <_vsnprintf>
200035d8:	b004      	add	sp, #16
200035da:	bd70      	pop	{r4, r5, r6, pc}
200035dc:	20002191 	.word	0x20002191

200035e0 <weak_raw_vprintf>:
200035e0:	b510      	push	{r4, lr}
200035e2:	4b09      	ldr	r3, [pc, #36]	@ (20003608 <weak_raw_vprintf+0x28>)
200035e4:	b084      	sub	sp, #16
200035e6:	681c      	ldr	r4, [r3, #0]
200035e8:	b14c      	cbz	r4, 200035fe <weak_raw_vprintf+0x1e>
200035ea:	4603      	mov	r3, r0
200035ec:	9100      	str	r1, [sp, #0]
200035ee:	f04f 32ff 	mov.w	r2, #4294967295
200035f2:	a903      	add	r1, sp, #12
200035f4:	4805      	ldr	r0, [pc, #20]	@ (2000360c <weak_raw_vprintf+0x2c>)
200035f6:	47a0      	blx	r4
200035f8:	2001      	movs	r0, #1
200035fa:	b004      	add	sp, #16
200035fc:	bd10      	pop	{r4, pc}
200035fe:	f000 f963 	bl	200038c8 <__wrap_puts>
20003602:	4620      	mov	r0, r4
20003604:	b004      	add	sp, #16
20003606:	bd10      	pop	{r4, pc}
20003608:	2000557c 	.word	0x2000557c
2000360c:	20002189 	.word	0x20002189

20003610 <_exit>:
20003610:	be00      	bkpt	0x0000
20003612:	e7fd      	b.n	20003610 <_exit>

20003614 <exit>:
20003614:	b508      	push	{r3, lr}
20003616:	f7ff fffb 	bl	20003610 <_exit>
2000361a:	bf00      	nop

2000361c <runtime_init>:
2000361c:	b538      	push	{r3, r4, r5, lr}
2000361e:	4c06      	ldr	r4, [pc, #24]	@ (20003638 <runtime_init+0x1c>)
20003620:	4d06      	ldr	r5, [pc, #24]	@ (2000363c <runtime_init+0x20>)
20003622:	f7fe fa43 	bl	20001aac <runtime_run_initializers>
20003626:	42ac      	cmp	r4, r5
20003628:	d204      	bcs.n	20003634 <runtime_init+0x18>
2000362a:	f854 3b04 	ldr.w	r3, [r4], #4
2000362e:	4798      	blx	r3
20003630:	42ac      	cmp	r4, r5
20003632:	d3fa      	bcc.n	2000362a <runtime_init+0xe>
20003634:	bd38      	pop	{r3, r4, r5, pc}
20003636:	bf00      	nop
20003638:	20005390 	.word	0x20005390
2000363c:	20005390 	.word	0x20005390

20003640 <stdio_out_chars_no_crlf>:
20003640:	6803      	ldr	r3, [r0, #0]
20003642:	4608      	mov	r0, r1
20003644:	4611      	mov	r1, r2
20003646:	4718      	bx	r3

20003648 <stdio_out_chars_crlf>:
20003648:	e92d 41f0 	stmdb	sp!, {r4, r5, r6, r7, r8, lr}
2000364c:	4615      	mov	r5, r2
2000364e:	7d42      	ldrb	r2, [r0, #21]
20003650:	4607      	mov	r7, r0
20003652:	4688      	mov	r8, r1
20003654:	2a00      	cmp	r2, #0
20003656:	d046      	beq.n	200036e6 <stdio_out_chars_crlf+0x9e>
20003658:	2d00      	cmp	r5, #0
2000365a:	dd1d      	ble.n	20003698 <stdio_out_chars_crlf+0x50>
2000365c:	780b      	ldrb	r3, [r1, #0]
2000365e:	2b0a      	cmp	r3, #10
20003660:	d023      	beq.n	200036aa <stdio_out_chars_crlf+0x62>
20003662:	2d01      	cmp	r5, #1
20003664:	f04f 0c00 	mov.w	ip, #0
20003668:	d018      	beq.n	2000369c <stdio_out_chars_crlf+0x54>
2000366a:	4646      	mov	r6, r8
2000366c:	2401      	movs	r4, #1
2000366e:	f816 2f01 	ldrb.w	r2, [r6, #1]!
20003672:	4621      	mov	r1, r4
20003674:	2a0a      	cmp	r2, #10
20003676:	f104 0401 	add.w	r4, r4, #1
2000367a:	d022      	beq.n	200036c2 <stdio_out_chars_crlf+0x7a>
2000367c:	42a5      	cmp	r5, r4
2000367e:	d1f6      	bne.n	2000366e <stdio_out_chars_crlf+0x26>
20003680:	4565      	cmp	r5, ip
20003682:	dc0b      	bgt.n	2000369c <stdio_out_chars_crlf+0x54>
20003684:	eb08 0305 	add.w	r3, r8, r5
20003688:	f813 3c01 	ldrb.w	r3, [r3, #-1]
2000368c:	f1a3 030d 	sub.w	r3, r3, #13
20003690:	fab3 f383 	clz	r3, r3
20003694:	095b      	lsrs	r3, r3, #5
20003696:	753b      	strb	r3, [r7, #20]
20003698:	e8bd 81f0 	ldmia.w	sp!, {r4, r5, r6, r7, r8, pc}
2000369c:	683b      	ldr	r3, [r7, #0]
2000369e:	eba5 010c 	sub.w	r1, r5, ip
200036a2:	eb08 000c 	add.w	r0, r8, ip
200036a6:	4798      	blx	r3
200036a8:	e7ec      	b.n	20003684 <stdio_out_chars_crlf+0x3c>
200036aa:	7d03      	ldrb	r3, [r0, #20]
200036ac:	2b00      	cmp	r3, #0
200036ae:	d1d8      	bne.n	20003662 <stdio_out_chars_crlf+0x1a>
200036b0:	6803      	ldr	r3, [r0, #0]
200036b2:	2102      	movs	r1, #2
200036b4:	480f      	ldr	r0, [pc, #60]	@ (200036f4 <stdio_out_chars_crlf+0xac>)
200036b6:	4798      	blx	r3
200036b8:	2d01      	cmp	r5, #1
200036ba:	d0e3      	beq.n	20003684 <stdio_out_chars_crlf+0x3c>
200036bc:	f04f 0c01 	mov.w	ip, #1
200036c0:	e7d3      	b.n	2000366a <stdio_out_chars_crlf+0x22>
200036c2:	f816 3c01 	ldrb.w	r3, [r6, #-1]
200036c6:	2b0d      	cmp	r3, #13
200036c8:	d0d8      	beq.n	2000367c <stdio_out_chars_crlf+0x34>
200036ca:	458c      	cmp	ip, r1
200036cc:	eb08 000c 	add.w	r0, r8, ip
200036d0:	eba1 010c 	sub.w	r1, r1, ip
200036d4:	da01      	bge.n	200036da <stdio_out_chars_crlf+0x92>
200036d6:	683b      	ldr	r3, [r7, #0]
200036d8:	4798      	blx	r3
200036da:	2102      	movs	r1, #2
200036dc:	4805      	ldr	r0, [pc, #20]	@ (200036f4 <stdio_out_chars_crlf+0xac>)
200036de:	683b      	ldr	r3, [r7, #0]
200036e0:	4798      	blx	r3
200036e2:	46a4      	mov	ip, r4
200036e4:	e7ca      	b.n	2000367c <stdio_out_chars_crlf+0x34>
200036e6:	4629      	mov	r1, r5
200036e8:	4640      	mov	r0, r8
200036ea:	683b      	ldr	r3, [r7, #0]
200036ec:	e8bd 41f0 	ldmia.w	sp!, {r4, r5, r6, r7, r8, lr}
200036f0:	4718      	bx	r3
200036f2:	bf00      	nop
200036f4:	200052a8 	.word	0x200052a8

200036f8 <stdio_buffered_printer>:
200036f8:	680b      	ldr	r3, [r1, #0]
200036fa:	e92d 41f0 	stmdb	sp!, {r4, r5, r6, r7, r8, lr}
200036fe:	2b80      	cmp	r3, #128	@ 0x80
20003700:	460d      	mov	r5, r1
20003702:	4606      	mov	r6, r0
20003704:	d005      	beq.n	20003712 <stdio_buffered_printer+0x1a>
20003706:	1c5a      	adds	r2, r3, #1
20003708:	442b      	add	r3, r5
2000370a:	602a      	str	r2, [r5, #0]
2000370c:	711e      	strb	r6, [r3, #4]
2000370e:	e8bd 81f0 	ldmia.w	sp!, {r4, r5, r6, r7, r8, pc}
20003712:	4b0f      	ldr	r3, [pc, #60]	@ (20003750 <stdio_buffered_printer+0x58>)
20003714:	681c      	ldr	r4, [r3, #0]
20003716:	b1a4      	cbz	r4, 20003742 <stdio_buffered_printer+0x4a>
20003718:	4f0e      	ldr	r7, [pc, #56]	@ (20003754 <stdio_buffered_printer+0x5c>)
2000371a:	f101 0804 	add.w	r8, r1, #4
2000371e:	e001      	b.n	20003724 <stdio_buffered_printer+0x2c>
20003720:	6924      	ldr	r4, [r4, #16]
20003722:	b174      	cbz	r4, 20003742 <stdio_buffered_printer+0x4a>
20003724:	6823      	ldr	r3, [r4, #0]
20003726:	2b00      	cmp	r3, #0
20003728:	d0fa      	beq.n	20003720 <stdio_buffered_printer+0x28>
2000372a:	683b      	ldr	r3, [r7, #0]
2000372c:	b10b      	cbz	r3, 20003732 <stdio_buffered_printer+0x3a>
2000372e:	42a3      	cmp	r3, r4
20003730:	d1f6      	bne.n	20003720 <stdio_buffered_printer+0x28>
20003732:	4620      	mov	r0, r4
20003734:	4641      	mov	r1, r8
20003736:	682a      	ldr	r2, [r5, #0]
20003738:	f7ff ff86 	bl	20003648 <stdio_out_chars_crlf>
2000373c:	6924      	ldr	r4, [r4, #16]
2000373e:	2c00      	cmp	r4, #0
20003740:	d1f0      	bne.n	20003724 <stdio_buffered_printer+0x2c>
20003742:	2300      	movs	r3, #0
20003744:	2201      	movs	r2, #1
20003746:	442b      	add	r3, r5
20003748:	602a      	str	r2, [r5, #0]
2000374a:	711e      	strb	r6, [r3, #4]
2000374c:	e8bd 81f0 	ldmia.w	sp!, {r4, r5, r6, r7, r8, pc}
20003750:	20005574 	.word	0x20005574
20003754:	20005578 	.word	0x20005578

20003758 <stdio_put_string>:
20003758:	e92d 47f0 	stmdb	sp!, {r4, r5, r6, r7, r8, r9, sl, lr}
2000375c:	b082      	sub	sp, #8
2000375e:	460d      	mov	r5, r1
20003760:	4691      	mov	r9, r2
20003762:	461c      	mov	r4, r3
20003764:	4606      	mov	r6, r0
20003766:	f7fe f881 	bl	2000186c <time_us_64>
2000376a:	f04f 3cff 	mov.w	ip, #4294967295
2000376e:	f06f 4700 	mvn.w	r7, #2147483648	@ 0x80000000
20003772:	4a2e      	ldr	r2, [pc, #184]	@ (2000382c <stdio_put_string+0xd4>)
20003774:	1882      	adds	r2, r0, r2
20003776:	f141 0300 	adc.w	r3, r1, #0
2000377a:	4594      	cmp	ip, r2
2000377c:	eb77 0103 	sbcs.w	r1, r7, r3
20003780:	bf3c      	itt	cc
20003782:	4662      	movcc	r2, ip
20003784:	463b      	movcc	r3, r7
20003786:	482a      	ldr	r0, [pc, #168]	@ (20003830 <stdio_put_string+0xd8>)
20003788:	f7fc fd7e 	bl	20000288 <mutex_try_enter_block_until>
2000378c:	1c6b      	adds	r3, r5, #1
2000378e:	4680      	mov	r8, r0
20003790:	d040      	beq.n	20003814 <stdio_put_string+0xbc>
20003792:	b30c      	cbz	r4, 200037d8 <stdio_put_string+0x80>
20003794:	4f27      	ldr	r7, [pc, #156]	@ (20003834 <stdio_put_string+0xdc>)
20003796:	4b28      	ldr	r3, [pc, #160]	@ (20003838 <stdio_put_string+0xe0>)
20003798:	681c      	ldr	r4, [r3, #0]
2000379a:	b1b4      	cbz	r4, 200037ca <stdio_put_string+0x72>
2000379c:	f1b9 0f00 	cmp.w	r9, #0
200037a0:	d11c      	bne.n	200037dc <stdio_put_string+0x84>
200037a2:	f8df 909c 	ldr.w	r9, [pc, #156]	@ 20003840 <stdio_put_string+0xe8>
200037a6:	e001      	b.n	200037ac <stdio_put_string+0x54>
200037a8:	6924      	ldr	r4, [r4, #16]
200037aa:	b174      	cbz	r4, 200037ca <stdio_put_string+0x72>
200037ac:	6823      	ldr	r3, [r4, #0]
200037ae:	2b00      	cmp	r3, #0
200037b0:	d0fa      	beq.n	200037a8 <stdio_put_string+0x50>
200037b2:	f8d9 3000 	ldr.w	r3, [r9]
200037b6:	b10b      	cbz	r3, 200037bc <stdio_put_string+0x64>
200037b8:	429c      	cmp	r4, r3
200037ba:	d1f5      	bne.n	200037a8 <stdio_put_string+0x50>
200037bc:	4620      	mov	r0, r4
200037be:	462a      	mov	r2, r5
200037c0:	4631      	mov	r1, r6
200037c2:	47b8      	blx	r7
200037c4:	6924      	ldr	r4, [r4, #16]
200037c6:	2c00      	cmp	r4, #0
200037c8:	d1f0      	bne.n	200037ac <stdio_put_string+0x54>
200037ca:	f1b8 0f00 	cmp.w	r8, #0
200037ce:	d126      	bne.n	2000381e <stdio_put_string+0xc6>
200037d0:	4628      	mov	r0, r5
200037d2:	b002      	add	sp, #8
200037d4:	e8bd 87f0 	ldmia.w	sp!, {r4, r5, r6, r7, r8, r9, sl, pc}
200037d8:	4f18      	ldr	r7, [pc, #96]	@ (2000383c <stdio_put_string+0xe4>)
200037da:	e7dc      	b.n	20003796 <stdio_put_string+0x3e>
200037dc:	f04f 0a0a 	mov.w	sl, #10
200037e0:	f8df 905c 	ldr.w	r9, [pc, #92]	@ 20003840 <stdio_put_string+0xe8>
200037e4:	e002      	b.n	200037ec <stdio_put_string+0x94>
200037e6:	6924      	ldr	r4, [r4, #16]
200037e8:	2c00      	cmp	r4, #0
200037ea:	d0ee      	beq.n	200037ca <stdio_put_string+0x72>
200037ec:	6823      	ldr	r3, [r4, #0]
200037ee:	2b00      	cmp	r3, #0
200037f0:	d0f9      	beq.n	200037e6 <stdio_put_string+0x8e>
200037f2:	f8d9 3000 	ldr.w	r3, [r9]
200037f6:	b10b      	cbz	r3, 200037fc <stdio_put_string+0xa4>
200037f8:	42a3      	cmp	r3, r4
200037fa:	d1f4      	bne.n	200037e6 <stdio_put_string+0x8e>
200037fc:	462a      	mov	r2, r5
200037fe:	4631      	mov	r1, r6
20003800:	4620      	mov	r0, r4
20003802:	47b8      	blx	r7
20003804:	2201      	movs	r2, #1
20003806:	4620      	mov	r0, r4
20003808:	f10d 0107 	add.w	r1, sp, #7
2000380c:	f88d a007 	strb.w	sl, [sp, #7]
20003810:	47b8      	blx	r7
20003812:	e7e8      	b.n	200037e6 <stdio_put_string+0x8e>
20003814:	4630      	mov	r0, r6
20003816:	f001 fc49 	bl	200050ac <strlen>
2000381a:	4605      	mov	r5, r0
2000381c:	e7b9      	b.n	20003792 <stdio_put_string+0x3a>
2000381e:	4804      	ldr	r0, [pc, #16]	@ (20003830 <stdio_put_string+0xd8>)
20003820:	f7fc fd66 	bl	200002f0 <mutex_exit>
20003824:	4628      	mov	r0, r5
20003826:	b002      	add	sp, #8
20003828:	e8bd 87f0 	ldmia.w	sp!, {r4, r5, r6, r7, r8, r9, sl, pc}
2000382c:	000f4240 	.word	0x000f4240
20003830:	20005350 	.word	0x20005350
20003834:	20003649 	.word	0x20003649
20003838:	20005574 	.word	0x20005574
2000383c:	20003641 	.word	0x20003641
20003840:	20005578 	.word	0x20005578

20003844 <__wrap_putchar>:
20003844:	b5f0      	push	{r4, r5, r6, r7, lr}
20003846:	b083      	sub	sp, #12
20003848:	4606      	mov	r6, r0
2000384a:	f88d 0007 	strb.w	r0, [sp, #7]
2000384e:	f7fe f80d 	bl	2000186c <time_us_64>
20003852:	f04f 35ff 	mov.w	r5, #4294967295
20003856:	f06f 4400 	mvn.w	r4, #2147483648	@ 0x80000000
2000385a:	4a17      	ldr	r2, [pc, #92]	@ (200038b8 <__wrap_putchar+0x74>)
2000385c:	1882      	adds	r2, r0, r2
2000385e:	f141 0300 	adc.w	r3, r1, #0
20003862:	4295      	cmp	r5, r2
20003864:	eb74 0103 	sbcs.w	r1, r4, r3
20003868:	bf3c      	itt	cc
2000386a:	4623      	movcc	r3, r4
2000386c:	462a      	movcc	r2, r5
2000386e:	4813      	ldr	r0, [pc, #76]	@ (200038bc <__wrap_putchar+0x78>)
20003870:	f7fc fd0a 	bl	20000288 <mutex_try_enter_block_until>
20003874:	4b12      	ldr	r3, [pc, #72]	@ (200038c0 <__wrap_putchar+0x7c>)
20003876:	4607      	mov	r7, r0
20003878:	681c      	ldr	r4, [r3, #0]
2000387a:	b19c      	cbz	r4, 200038a4 <__wrap_putchar+0x60>
2000387c:	4d11      	ldr	r5, [pc, #68]	@ (200038c4 <__wrap_putchar+0x80>)
2000387e:	e001      	b.n	20003884 <__wrap_putchar+0x40>
20003880:	6924      	ldr	r4, [r4, #16]
20003882:	b17c      	cbz	r4, 200038a4 <__wrap_putchar+0x60>
20003884:	6823      	ldr	r3, [r4, #0]
20003886:	2b00      	cmp	r3, #0
20003888:	d0fa      	beq.n	20003880 <__wrap_putchar+0x3c>
2000388a:	682b      	ldr	r3, [r5, #0]
2000388c:	b10b      	cbz	r3, 20003892 <__wrap_putchar+0x4e>
2000388e:	429c      	cmp	r4, r3
20003890:	d1f6      	bne.n	20003880 <__wrap_putchar+0x3c>
20003892:	4620      	mov	r0, r4
20003894:	2201      	movs	r2, #1
20003896:	f10d 0107 	add.w	r1, sp, #7
2000389a:	f7ff fed5 	bl	20003648 <stdio_out_chars_crlf>
2000389e:	6924      	ldr	r4, [r4, #16]
200038a0:	2c00      	cmp	r4, #0
200038a2:	d1ef      	bne.n	20003884 <__wrap_putchar+0x40>
200038a4:	b917      	cbnz	r7, 200038ac <__wrap_putchar+0x68>
200038a6:	4630      	mov	r0, r6
200038a8:	b003      	add	sp, #12
200038aa:	bdf0      	pop	{r4, r5, r6, r7, pc}
200038ac:	4803      	ldr	r0, [pc, #12]	@ (200038bc <__wrap_putchar+0x78>)
200038ae:	f7fc fd1f 	bl	200002f0 <mutex_exit>
200038b2:	4630      	mov	r0, r6
200038b4:	b003      	add	sp, #12
200038b6:	bdf0      	pop	{r4, r5, r6, r7, pc}
200038b8:	000f4240 	.word	0x000f4240
200038bc:	20005350 	.word	0x20005350
200038c0:	20005574 	.word	0x20005574
200038c4:	20005578 	.word	0x20005578

200038c8 <__wrap_puts>:
200038c8:	b538      	push	{r3, r4, r5, lr}
200038ca:	4604      	mov	r4, r0
200038cc:	f001 fbee 	bl	200050ac <strlen>
200038d0:	2301      	movs	r3, #1
200038d2:	4605      	mov	r5, r0
200038d4:	461a      	mov	r2, r3
200038d6:	4620      	mov	r0, r4
200038d8:	4629      	mov	r1, r5
200038da:	f7ff ff3d 	bl	20003758 <stdio_put_string>
200038de:	4b08      	ldr	r3, [pc, #32]	@ (20003900 <__wrap_puts+0x38>)
200038e0:	681c      	ldr	r4, [r3, #0]
200038e2:	b12c      	cbz	r4, 200038f0 <__wrap_puts+0x28>
200038e4:	6863      	ldr	r3, [r4, #4]
200038e6:	b12b      	cbz	r3, 200038f4 <__wrap_puts+0x2c>
200038e8:	4798      	blx	r3
200038ea:	6924      	ldr	r4, [r4, #16]
200038ec:	2c00      	cmp	r4, #0
200038ee:	d1f9      	bne.n	200038e4 <__wrap_puts+0x1c>
200038f0:	4628      	mov	r0, r5
200038f2:	bd38      	pop	{r3, r4, r5, pc}
200038f4:	6924      	ldr	r4, [r4, #16]
200038f6:	2c00      	cmp	r4, #0
200038f8:	d1f4      	bne.n	200038e4 <__wrap_puts+0x1c>
200038fa:	4628      	mov	r0, r5
200038fc:	bd38      	pop	{r3, r4, r5, pc}
200038fe:	bf00      	nop
20003900:	20005574 	.word	0x20005574

20003904 <__wrap_vprintf>:
20003904:	e92d 41f0 	stmdb	sp!, {r4, r5, r6, r7, r8, lr}
20003908:	b0a2      	sub	sp, #136	@ 0x88
2000390a:	4604      	mov	r4, r0
2000390c:	460d      	mov	r5, r1
2000390e:	f7fd ffad 	bl	2000186c <time_us_64>
20003912:	f04f 37ff 	mov.w	r7, #4294967295
20003916:	f06f 4600 	mvn.w	r6, #2147483648	@ 0x80000000
2000391a:	4a26      	ldr	r2, [pc, #152]	@ (200039b4 <__wrap_vprintf+0xb0>)
2000391c:	f8df 80a4 	ldr.w	r8, [pc, #164]	@ 200039c4 <__wrap_vprintf+0xc0>
20003920:	1882      	adds	r2, r0, r2
20003922:	f141 0300 	adc.w	r3, r1, #0
20003926:	4297      	cmp	r7, r2
20003928:	eb76 0103 	sbcs.w	r1, r6, r3
2000392c:	bf3c      	itt	cc
2000392e:	463a      	movcc	r2, r7
20003930:	4633      	movcc	r3, r6
20003932:	4821      	ldr	r0, [pc, #132]	@ (200039b8 <__wrap_vprintf+0xb4>)
20003934:	f7fc fca8 	bl	20000288 <mutex_try_enter_block_until>
20003938:	2700      	movs	r7, #0
2000393a:	462b      	mov	r3, r5
2000393c:	4622      	mov	r2, r4
2000393e:	4606      	mov	r6, r0
20003940:	a901      	add	r1, sp, #4
20003942:	481e      	ldr	r0, [pc, #120]	@ (200039bc <__wrap_vprintf+0xb8>)
20003944:	9701      	str	r7, [sp, #4]
20003946:	f7ff fe37 	bl	200035b8 <vfctprintf>
2000394a:	9b01      	ldr	r3, [sp, #4]
2000394c:	4605      	mov	r5, r0
2000394e:	f8d8 4000 	ldr.w	r4, [r8]
20003952:	b1c3      	cbz	r3, 20003986 <__wrap_vprintf+0x82>
20003954:	2c00      	cmp	r4, #0
20003956:	d02b      	beq.n	200039b0 <__wrap_vprintf+0xac>
20003958:	4f19      	ldr	r7, [pc, #100]	@ (200039c0 <__wrap_vprintf+0xbc>)
2000395a:	e001      	b.n	20003960 <__wrap_vprintf+0x5c>
2000395c:	6924      	ldr	r4, [r4, #16]
2000395e:	b174      	cbz	r4, 2000397e <__wrap_vprintf+0x7a>
20003960:	6823      	ldr	r3, [r4, #0]
20003962:	2b00      	cmp	r3, #0
20003964:	d0fa      	beq.n	2000395c <__wrap_vprintf+0x58>
20003966:	683b      	ldr	r3, [r7, #0]
20003968:	b10b      	cbz	r3, 2000396e <__wrap_vprintf+0x6a>
2000396a:	42a3      	cmp	r3, r4
2000396c:	d1f6      	bne.n	2000395c <__wrap_vprintf+0x58>
2000396e:	4620      	mov	r0, r4
20003970:	9a01      	ldr	r2, [sp, #4]
20003972:	a902      	add	r1, sp, #8
20003974:	f7ff fe68 	bl	20003648 <stdio_out_chars_crlf>
20003978:	6924      	ldr	r4, [r4, #16]
2000397a:	2c00      	cmp	r4, #0
2000397c:	d1f0      	bne.n	20003960 <__wrap_vprintf+0x5c>
2000397e:	2300      	movs	r3, #0
20003980:	f8d8 4000 	ldr.w	r4, [r8]
20003984:	9301      	str	r3, [sp, #4]
20003986:	b12c      	cbz	r4, 20003994 <__wrap_vprintf+0x90>
20003988:	6863      	ldr	r3, [r4, #4]
2000398a:	b143      	cbz	r3, 2000399e <__wrap_vprintf+0x9a>
2000398c:	4798      	blx	r3
2000398e:	6924      	ldr	r4, [r4, #16]
20003990:	2c00      	cmp	r4, #0
20003992:	d1f9      	bne.n	20003988 <__wrap_vprintf+0x84>
20003994:	b92e      	cbnz	r6, 200039a2 <__wrap_vprintf+0x9e>
20003996:	4628      	mov	r0, r5
20003998:	b022      	add	sp, #136	@ 0x88
2000399a:	e8bd 81f0 	ldmia.w	sp!, {r4, r5, r6, r7, r8, pc}
2000399e:	6924      	ldr	r4, [r4, #16]
200039a0:	e7f1      	b.n	20003986 <__wrap_vprintf+0x82>
200039a2:	4805      	ldr	r0, [pc, #20]	@ (200039b8 <__wrap_vprintf+0xb4>)
200039a4:	f7fc fca4 	bl	200002f0 <mutex_exit>
200039a8:	4628      	mov	r0, r5
200039aa:	b022      	add	sp, #136	@ 0x88
200039ac:	e8bd 81f0 	ldmia.w	sp!, {r4, r5, r6, r7, r8, pc}
200039b0:	9401      	str	r4, [sp, #4]
200039b2:	e7ef      	b.n	20003994 <__wrap_vprintf+0x90>
200039b4:	000f4240 	.word	0x000f4240
200039b8:	20005350 	.word	0x20005350
200039bc:	200036f9 	.word	0x200036f9
200039c0:	20005578 	.word	0x20005578
200039c4:	20005574 	.word	0x20005574

200039c8 <__wrap_printf>:
200039c8:	b40f      	push	{r0, r1, r2, r3}
200039ca:	b500      	push	{lr}
200039cc:	b083      	sub	sp, #12
200039ce:	a904      	add	r1, sp, #16
200039d0:	f851 0b04 	ldr.w	r0, [r1], #4
200039d4:	9101      	str	r1, [sp, #4]
200039d6:	f7ff ff95 	bl	20003904 <__wrap_vprintf>
200039da:	b003      	add	sp, #12
200039dc:	f85d eb04 	ldr.w	lr, [sp], #4
200039e0:	b004      	add	sp, #16
200039e2:	4770      	bx	lr

200039e4 <spi_init>:
200039e4:	4b38      	ldr	r3, [pc, #224]	@ (20003ac8 <spi_init+0xe4>)
200039e6:	e92d 47f0 	stmdb	sp!, {r4, r5, r6, r7, r8, r9, sl, lr}
200039ea:	4298      	cmp	r0, r3
200039ec:	bf14      	ite	ne
200039ee:	f44f 2300 	movne.w	r3, #524288	@ 0x80000
200039f2:	f44f 2380 	moveq.w	r3, #262144	@ 0x40000
200039f6:	4607      	mov	r7, r0
200039f8:	460e      	mov	r6, r1
200039fa:	4d34      	ldr	r5, [pc, #208]	@ (20003acc <spi_init+0xe8>)
200039fc:	4c34      	ldr	r4, [pc, #208]	@ (20003ad0 <spi_init+0xec>)
200039fe:	4a35      	ldr	r2, [pc, #212]	@ (20003ad4 <spi_init+0xf0>)
20003a00:	602b      	str	r3, [r5, #0]
20003a02:	6023      	str	r3, [r4, #0]
20003a04:	6895      	ldr	r5, [r2, #8]
20003a06:	ea33 0505 	bics.w	r5, r3, r5
20003a0a:	d1fb      	bne.n	20003a04 <spi_init+0x20>
20003a0c:	2006      	movs	r0, #6
20003a0e:	f7fd ffb1 	bl	20001974 <clock_get_hz>
20003a12:	4639      	mov	r1, r7
20003a14:	f04f 0a02 	mov.w	sl, #2
20003a18:	f851 ef04 	ldr.w	lr, [r1, #4]!
20003a1c:	ea4f 59d6 	mov.w	r9, r6, lsr #23
20003a20:	ea4f 2c46 	mov.w	ip, r6, lsl #9
20003a24:	f501 5840 	add.w	r8, r1, #12288	@ 0x3000
20003a28:	4663      	mov	r3, ip
20003a2a:	464a      	mov	r2, r9
20003a2c:	4654      	mov	r4, sl
20003a2e:	ea0e 0e0a 	and.w	lr, lr, sl
20003a32:	f8c8 a000 	str.w	sl, [r8]
20003a36:	e008      	b.n	20003a4a <spi_init+0x66>
20003a38:	eb13 030c 	adds.w	r3, r3, ip
20003a3c:	f104 0402 	add.w	r4, r4, #2
20003a40:	eb42 0209 	adc.w	r2, r2, r9
20003a44:	f5b4 7f80 	cmp.w	r4, #256	@ 0x100
20003a48:	d003      	beq.n	20003a52 <spi_init+0x6e>
20003a4a:	4298      	cmp	r0, r3
20003a4c:	eb75 0a02 	sbcs.w	sl, r5, r2
20003a50:	d2f2      	bcs.n	20003a38 <spi_init+0x54>
20003a52:	f44f 7380 	mov.w	r3, #256	@ 0x100
20003a56:	ebc4 2204 	rsb	r2, r4, r4, lsl #8
20003a5a:	e001      	b.n	20003a60 <spi_init+0x7c>
20003a5c:	2b01      	cmp	r3, #1
20003a5e:	d030      	beq.n	20003ac2 <spi_init+0xde>
20003a60:	fbb0 fcf2 	udiv	ip, r0, r2
20003a64:	4566      	cmp	r6, ip
20003a66:	4699      	mov	r9, r3
20003a68:	eba2 0204 	sub.w	r2, r2, r4
20003a6c:	f103 33ff 	add.w	r3, r3, #4294967295
20003a70:	d2f4      	bcs.n	20003a5c <spi_init+0x78>
20003a72:	fb09 f904 	mul.w	r9, r9, r4
20003a76:	021d      	lsls	r5, r3, #8
20003a78:	613c      	str	r4, [r7, #16]
20003a7a:	2402      	movs	r4, #2
20003a7c:	463b      	mov	r3, r7
20003a7e:	2603      	movs	r6, #3
20003a80:	683a      	ldr	r2, [r7, #0]
20003a82:	f501 5100 	add.w	r1, r1, #8192	@ 0x2000
20003a86:	406a      	eors	r2, r5
20003a88:	f507 5c80 	add.w	ip, r7, #4096	@ 0x1000
20003a8c:	f402 427f 	and.w	r2, r2, #65280	@ 0xff00
20003a90:	f8cc 2000 	str.w	r2, [ip]
20003a94:	f8c1 e000 	str.w	lr, [r1]
20003a98:	687d      	ldr	r5, [r7, #4]
20003a9a:	f8c8 4000 	str.w	r4, [r8]
20003a9e:	f853 2b24 	ldr.w	r2, [r3], #36
20003aa2:	4025      	ands	r5, r4
20003aa4:	f082 0207 	eor.w	r2, r2, #7
20003aa8:	f002 02cf 	and.w	r2, r2, #207	@ 0xcf
20003aac:	f503 5300 	add.w	r3, r3, #8192	@ 0x2000
20003ab0:	f8cc 2000 	str.w	r2, [ip]
20003ab4:	fbb0 f0f9 	udiv	r0, r0, r9
20003ab8:	600d      	str	r5, [r1, #0]
20003aba:	601e      	str	r6, [r3, #0]
20003abc:	600c      	str	r4, [r1, #0]
20003abe:	e8bd 87f0 	ldmia.w	sp!, {r4, r5, r6, r7, r8, r9, sl, pc}
20003ac2:	46a1      	mov	r9, r4
20003ac4:	e7d8      	b.n	20003a78 <spi_init+0x94>
20003ac6:	bf00      	nop
20003ac8:	40080000 	.word	0x40080000
20003acc:	40022000 	.word	0x40022000
20003ad0:	40023000 	.word	0x40023000
20003ad4:	40020000 	.word	0x40020000

20003ad8 <spi_deinit>:
20003ad8:	4b08      	ldr	r3, [pc, #32]	@ (20003afc <spi_deinit+0x24>)
20003ada:	b430      	push	{r4, r5}
20003adc:	4298      	cmp	r0, r3
20003ade:	bf14      	ite	ne
20003ae0:	f44f 2300 	movne.w	r3, #524288	@ 0x80000
20003ae4:	f44f 2380 	moveq.w	r3, #262144	@ 0x40000
20003ae8:	2502      	movs	r5, #2
20003aea:	2403      	movs	r4, #3
20003aec:	4904      	ldr	r1, [pc, #16]	@ (20003b00 <spi_deinit+0x28>)
20003aee:	f500 5240 	add.w	r2, r0, #12288	@ 0x3000
20003af2:	6055      	str	r5, [r2, #4]
20003af4:	6254      	str	r4, [r2, #36]	@ 0x24
20003af6:	600b      	str	r3, [r1, #0]
20003af8:	bc30      	pop	{r4, r5}
20003afa:	4770      	bx	lr
20003afc:	40080000 	.word	0x40080000
20003b00:	40022000 	.word	0x40022000

20003b04 <nrf_driver_read_packet>:
20003b04:	e92d 4ff0 	stmdb	sp!, {r4, r5, r6, r7, r8, r9, sl, fp, lr}
20003b08:	b085      	sub	sp, #20
20003b0a:	4c41      	ldr	r4, [pc, #260]	@ (20003c10 <nrf_driver_read_packet+0x10c>)
20003b0c:	4606      	mov	r6, r0
20003b0e:	460d      	mov	r5, r1
20003b10:	e9d4 1002 	ldrd	r1, r0, [r4, #8]
20003b14:	af00      	add	r7, sp, #0
20003b16:	f000 ffc5 	bl	20004aa4 <spi_manager_init_spi>
20003b1a:	7c63      	ldrb	r3, [r4, #17]
20003b1c:	bba3      	cbnz	r3, 20003b88 <nrf_driver_read_packet+0x84>
20003b1e:	f105 0208 	add.w	r2, r5, #8
20003b22:	f022 0207 	bic.w	r2, r2, #7
20003b26:	46e9      	mov	r9, sp
20003b28:	ebad 0d02 	sub.w	sp, sp, r2
20003b2c:	46e8      	mov	r8, sp
20003b2e:	2361      	movs	r3, #97	@ 0x61
20003b30:	f105 0b01 	add.w	fp, r5, #1
20003b34:	ebad 0d02 	sub.w	sp, sp, r2
20003b38:	f1bb 0f01 	cmp.w	fp, #1
20003b3c:	46ea      	mov	sl, sp
20003b3e:	f888 3000 	strb.w	r3, [r8]
20003b42:	d954      	bls.n	20003bee <nrf_driver_read_packet+0xea>
20003b44:	462a      	mov	r2, r5
20003b46:	21ff      	movs	r1, #255	@ 0xff
20003b48:	f108 0001 	add.w	r0, r8, #1
20003b4c:	f001 f9ea 	bl	20004f24 <memset>
20003b50:	78e0      	ldrb	r0, [r4, #3]
20003b52:	f000 ffe3 	bl	20004b1c <csn_put_low>
20003b56:	4641      	mov	r1, r8
20003b58:	465b      	mov	r3, fp
20003b5a:	466a      	mov	r2, sp
20003b5c:	68e0      	ldr	r0, [r4, #12]
20003b5e:	f000 ffbb 	bl	20004ad8 <spi_manager_transfer>
20003b62:	4680      	mov	r8, r0
20003b64:	78e0      	ldrb	r0, [r4, #3]
20003b66:	f000 ffd3 	bl	20004b10 <csn_put_high>
20003b6a:	462a      	mov	r2, r5
20003b6c:	4630      	mov	r0, r6
20003b6e:	f10a 0101 	add.w	r1, sl, #1
20003b72:	f001 fa25 	bl	20004fc0 <memcpy>
20003b76:	46cd      	mov	sp, r9
20003b78:	68e0      	ldr	r0, [r4, #12]
20003b7a:	f000 ffab 	bl	20004ad4 <spi_manager_deinit_spi>
20003b7e:	4640      	mov	r0, r8
20003b80:	3714      	adds	r7, #20
20003b82:	46bd      	mov	sp, r7
20003b84:	e8bd 8ff0 	ldmia.w	sp!, {r4, r5, r6, r7, r8, r9, sl, fp, pc}
20003b88:	f64f 7360 	movw	r3, #65376	@ 0xff60
20003b8c:	78e0      	ldrb	r0, [r4, #3]
20003b8e:	813b      	strh	r3, [r7, #8]
20003b90:	f000 ffc4 	bl	20004b1c <csn_put_low>
20003b94:	2302      	movs	r3, #2
20003b96:	f107 020c 	add.w	r2, r7, #12
20003b9a:	f107 0108 	add.w	r1, r7, #8
20003b9e:	68e0      	ldr	r0, [r4, #12]
20003ba0:	f000 ff9a 	bl	20004ad8 <spi_manager_transfer>
20003ba4:	4680      	mov	r8, r0
20003ba6:	78e0      	ldrb	r0, [r4, #3]
20003ba8:	f000 ffb2 	bl	20004b10 <csn_put_high>
20003bac:	7b7b      	ldrb	r3, [r7, #13]
20003bae:	2b20      	cmp	r3, #32
20003bb0:	d805      	bhi.n	20003bbe <nrf_driver_read_packet+0xba>
20003bb2:	f1b8 0f00 	cmp.w	r8, #0
20003bb6:	d1b2      	bne.n	20003b1e <nrf_driver_read_packet+0x1a>
20003bb8:	f04f 0800 	mov.w	r8, #0
20003bbc:	e7dc      	b.n	20003b78 <nrf_driver_read_packet+0x74>
20003bbe:	78e0      	ldrb	r0, [r4, #3]
20003bc0:	f000 ffac 	bl	20004b1c <csn_put_low>
20003bc4:	2002      	movs	r0, #2
20003bc6:	2100      	movs	r1, #0
20003bc8:	f7fd fcf2 	bl	200015b0 <sleep_us>
20003bcc:	23e2      	movs	r3, #226	@ 0xe2
20003bce:	2201      	movs	r2, #1
20003bd0:	1d39      	adds	r1, r7, #4
20003bd2:	68e0      	ldr	r0, [r4, #12]
20003bd4:	713b      	strb	r3, [r7, #4]
20003bd6:	f7fc fbf1 	bl	200003bc <spi_write_blocking>
20003bda:	2002      	movs	r0, #2
20003bdc:	2100      	movs	r1, #0
20003bde:	f7fd fce7 	bl	200015b0 <sleep_us>
20003be2:	78e0      	ldrb	r0, [r4, #3]
20003be4:	f000 ff94 	bl	20004b10 <csn_put_high>
20003be8:	f04f 0800 	mov.w	r8, #0
20003bec:	e7c4      	b.n	20003b78 <nrf_driver_read_packet+0x74>
20003bee:	78e0      	ldrb	r0, [r4, #3]
20003bf0:	f000 ff94 	bl	20004b1c <csn_put_low>
20003bf4:	4641      	mov	r1, r8
20003bf6:	465b      	mov	r3, fp
20003bf8:	466a      	mov	r2, sp
20003bfa:	68e0      	ldr	r0, [r4, #12]
20003bfc:	f000 ff6c 	bl	20004ad8 <spi_manager_transfer>
20003c00:	4680      	mov	r8, r0
20003c02:	78e0      	ldrb	r0, [r4, #3]
20003c04:	f000 ff84 	bl	20004b10 <csn_put_high>
20003c08:	2d00      	cmp	r5, #0
20003c0a:	d0b4      	beq.n	20003b76 <nrf_driver_read_packet+0x72>
20003c0c:	e7ad      	b.n	20003b6a <nrf_driver_read_packet+0x66>
20003c0e:	bf00      	nop
20003c10:	20005330 	.word	0x20005330

20003c14 <nrf_driver_configure>:
20003c14:	b570      	push	{r4, r5, r6, lr}
20003c16:	4604      	mov	r4, r0
20003c18:	7900      	ldrb	r0, [r0, #4]
20003c1a:	b086      	sub	sp, #24
20003c1c:	78e3      	ldrb	r3, [r4, #3]
20003c1e:	78a2      	ldrb	r2, [r4, #2]
20003c20:	9000      	str	r0, [sp, #0]
20003c22:	460e      	mov	r6, r1
20003c24:	7820      	ldrb	r0, [r4, #0]
20003c26:	7861      	ldrb	r1, [r4, #1]
20003c28:	f000 ff8a 	bl	20004b40 <pin_manager_configure>
20003c2c:	2801      	cmp	r0, #1
20003c2e:	4603      	mov	r3, r0
20003c30:	d002      	beq.n	20003c38 <nrf_driver_configure+0x24>
20003c32:	4618      	mov	r0, r3
20003c34:	b006      	add	sp, #24
20003c36:	bd70      	pop	{r4, r5, r6, pc}
20003c38:	4d26      	ldr	r5, [pc, #152]	@ (20003cd4 <nrf_driver_configure+0xc0>)
20003c3a:	6820      	ldr	r0, [r4, #0]
20003c3c:	4a26      	ldr	r2, [pc, #152]	@ (20003cd8 <nrf_driver_configure+0xc4>)
20003c3e:	6028      	str	r0, [r5, #0]
20003c40:	7921      	ldrb	r1, [r4, #4]
20003c42:	e9cd 2204 	strd	r2, r2, [sp, #16]
20003c46:	786a      	ldrb	r2, [r5, #1]
20003c48:	7129      	strb	r1, [r5, #4]
20003c4a:	a906      	add	r1, sp, #24
20003c4c:	eb01 0292 	add.w	r2, r1, r2, lsr #2
20003c50:	7829      	ldrb	r1, [r5, #0]
20003c52:	f812 0c08 	ldrb.w	r0, [r2, #-8]
20003c56:	1eca      	subs	r2, r1, #3
20003c58:	bf48      	it	mi
20003c5a:	460a      	movmi	r2, r1
20003c5c:	78ac      	ldrb	r4, [r5, #2]
20003c5e:	a906      	add	r1, sp, #24
20003c60:	eb01 02a2 	add.w	r2, r1, r2, asr #2
20003c64:	f812 1c08 	ldrb.w	r1, [r2, #-8]
20003c68:	1ea2      	subs	r2, r4, #2
20003c6a:	bf48      	it	mi
20003c6c:	1c62      	addmi	r2, r4, #1
20003c6e:	ac06      	add	r4, sp, #24
20003c70:	f04f 0c01 	mov.w	ip, #1
20003c74:	eb04 02a2 	add.w	r2, r4, r2, asr #2
20003c78:	2400      	movs	r4, #0
20003c7a:	4468      	add	r0, sp
20003c7c:	f8ad 400c 	strh.w	r4, [sp, #12]
20003c80:	f88d 400e 	strb.w	r4, [sp, #14]
20003c84:	4469      	add	r1, sp
20003c86:	f880 c00c 	strb.w	ip, [r0, #12]
20003c8a:	7b08      	ldrb	r0, [r1, #12]
20003c8c:	f812 2c08 	ldrb.w	r2, [r2, #-8]
20003c90:	4460      	add	r0, ip
20003c92:	446a      	add	r2, sp
20003c94:	7308      	strb	r0, [r1, #12]
20003c96:	7b11      	ldrb	r1, [r2, #12]
20003c98:	4461      	add	r1, ip
20003c9a:	7311      	strb	r1, [r2, #12]
20003c9c:	f89d 200c 	ldrb.w	r2, [sp, #12]
20003ca0:	2a03      	cmp	r2, #3
20003ca2:	d011      	beq.n	20003cc8 <nrf_driver_configure+0xb4>
20003ca4:	f89d 200d 	ldrb.w	r2, [sp, #13]
20003ca8:	2a03      	cmp	r2, #3
20003caa:	d003      	beq.n	20003cb4 <nrf_driver_configure+0xa0>
20003cac:	4623      	mov	r3, r4
20003cae:	4618      	mov	r0, r3
20003cb0:	b006      	add	sp, #24
20003cb2:	bd70      	pop	{r4, r5, r6, pc}
20003cb4:	4909      	ldr	r1, [pc, #36]	@ (20003cdc <nrf_driver_configure+0xc8>)
20003cb6:	4a0a      	ldr	r2, [pc, #40]	@ (20003ce0 <nrf_driver_configure+0xcc>)
20003cb8:	428e      	cmp	r6, r1
20003cba:	bf28      	it	cs
20003cbc:	460e      	movcs	r6, r1
20003cbe:	4618      	mov	r0, r3
20003cc0:	e9c5 6202 	strd	r6, r2, [r5, #8]
20003cc4:	b006      	add	sp, #24
20003cc6:	bd70      	pop	{r4, r5, r6, pc}
20003cc8:	4904      	ldr	r1, [pc, #16]	@ (20003cdc <nrf_driver_configure+0xc8>)
20003cca:	4a06      	ldr	r2, [pc, #24]	@ (20003ce4 <nrf_driver_configure+0xd0>)
20003ccc:	428e      	cmp	r6, r1
20003cce:	bf28      	it	cs
20003cd0:	460e      	movcs	r6, r1
20003cd2:	e7f4      	b.n	20003cbe <nrf_driver_configure+0xaa>
20003cd4:	20005330 	.word	0x20005330
20003cd8:	01010000 	.word	0x01010000
20003cdc:	007270e0 	.word	0x007270e0
20003ce0:	40088000 	.word	0x40088000
20003ce4:	40080000 	.word	0x40080000

20003ce8 <nrf_driver_tx_destination>:
20003ce8:	e92d 4ff0 	stmdb	sp!, {r4, r5, r6, r7, r8, r9, sl, fp, lr}
20003cec:	b085      	sub	sp, #20
20003cee:	4603      	mov	r3, r0
20003cf0:	4c20      	ldr	r4, [pc, #128]	@ (20003d74 <nrf_driver_tx_destination+0x8c>)
20003cf2:	af00      	add	r7, sp, #0
20003cf4:	e9d4 1002 	ldrd	r1, r0, [r4, #8]
20003cf8:	607b      	str	r3, [r7, #4]
20003cfa:	f000 fed3 	bl	20004aa4 <spi_manager_init_spi>
20003cfe:	f241 030a 	movw	r3, #4106	@ 0x100a
20003d02:	f107 060c 	add.w	r6, r7, #12
20003d06:	81bb      	strh	r3, [r7, #12]
20003d08:	f107 0b0e 	add.w	fp, r7, #14
20003d0c:	7de2      	ldrb	r2, [r4, #23]
20003d0e:	46e8      	mov	r8, sp
20003d10:	f102 0108 	add.w	r1, r2, #8
20003d14:	f401 71fc 	and.w	r1, r1, #504	@ 0x1f8
20003d18:	ebad 0d01 	sub.w	sp, sp, r1
20003d1c:	466d      	mov	r5, sp
20003d1e:	f816 3b01 	ldrb.w	r3, [r6], #1
20003d22:	ebad 0d01 	sub.w	sp, sp, r1
20003d26:	f003 031f 	and.w	r3, r3, #31
20003d2a:	f043 0320 	orr.w	r3, r3, #32
20003d2e:	46ea      	mov	sl, sp
20003d30:	f102 0901 	add.w	r9, r2, #1
20003d34:	702b      	strb	r3, [r5, #0]
20003d36:	b11a      	cbz	r2, 20003d40 <nrf_driver_tx_destination+0x58>
20003d38:	6879      	ldr	r1, [r7, #4]
20003d3a:	1c68      	adds	r0, r5, #1
20003d3c:	f001 f940 	bl	20004fc0 <memcpy>
20003d40:	78e0      	ldrb	r0, [r4, #3]
20003d42:	f000 feeb 	bl	20004b1c <csn_put_low>
20003d46:	4629      	mov	r1, r5
20003d48:	464b      	mov	r3, r9
20003d4a:	4652      	mov	r2, sl
20003d4c:	68e0      	ldr	r0, [r4, #12]
20003d4e:	f000 fec3 	bl	20004ad8 <spi_manager_transfer>
20003d52:	4605      	mov	r5, r0
20003d54:	78e0      	ldrb	r0, [r4, #3]
20003d56:	f000 fedb 	bl	20004b10 <csn_put_high>
20003d5a:	46c5      	mov	sp, r8
20003d5c:	b10d      	cbz	r5, 20003d62 <nrf_driver_tx_destination+0x7a>
20003d5e:	455e      	cmp	r6, fp
20003d60:	d1d4      	bne.n	20003d0c <nrf_driver_tx_destination+0x24>
20003d62:	68e0      	ldr	r0, [r4, #12]
20003d64:	f000 feb6 	bl	20004ad4 <spi_manager_deinit_spi>
20003d68:	4628      	mov	r0, r5
20003d6a:	3714      	adds	r7, #20
20003d6c:	46bd      	mov	sp, r7
20003d6e:	e8bd 8ff0 	ldmia.w	sp!, {r4, r5, r6, r7, r8, r9, sl, fp, pc}
20003d72:	bf00      	nop
20003d74:	20005330 	.word	0x20005330

20003d78 <nrf_driver_rf_channel>:
20003d78:	b570      	push	{r4, r5, r6, lr}
20003d7a:	1e83      	subs	r3, r0, #2
20003d7c:	2b7b      	cmp	r3, #123	@ 0x7b
20003d7e:	b082      	sub	sp, #8
20003d80:	d903      	bls.n	20003d8a <nrf_driver_rf_channel+0x12>
20003d82:	2500      	movs	r5, #0
20003d84:	4628      	mov	r0, r5
20003d86:	b002      	add	sp, #8
20003d88:	bd70      	pop	{r4, r5, r6, pc}
20003d8a:	2325      	movs	r3, #37	@ 0x25
20003d8c:	4e0c      	ldr	r6, [pc, #48]	@ (20003dc0 <nrf_driver_rf_channel+0x48>)
20003d8e:	4604      	mov	r4, r0
20003d90:	f88d 0001 	strb.w	r0, [sp, #1]
20003d94:	78f0      	ldrb	r0, [r6, #3]
20003d96:	f88d 3000 	strb.w	r3, [sp]
20003d9a:	f000 febf 	bl	20004b1c <csn_put_low>
20003d9e:	2302      	movs	r3, #2
20003da0:	4669      	mov	r1, sp
20003da2:	aa01      	add	r2, sp, #4
20003da4:	68f0      	ldr	r0, [r6, #12]
20003da6:	f000 fe97 	bl	20004ad8 <spi_manager_transfer>
20003daa:	4605      	mov	r5, r0
20003dac:	78f0      	ldrb	r0, [r6, #3]
20003dae:	f000 feaf 	bl	20004b10 <csn_put_high>
20003db2:	4628      	mov	r0, r5
20003db4:	2d02      	cmp	r5, #2
20003db6:	bf18      	it	ne
20003db8:	7db4      	ldrbne	r4, [r6, #22]
20003dba:	75b4      	strb	r4, [r6, #22]
20003dbc:	b002      	add	sp, #8
20003dbe:	bd70      	pop	{r4, r5, r6, pc}
20003dc0:	20005330 	.word	0x20005330

20003dc4 <nrf_driver_initialise>:
20003dc4:	e92d 41f0 	stmdb	sp!, {r4, r5, r6, r7, r8, lr}
20003dc8:	4604      	mov	r4, r0
20003dca:	4d77      	ldr	r5, [pc, #476]	@ (20003fa8 <nrf_driver_initialise+0x1e4>)
20003dcc:	b088      	sub	sp, #32
20003dce:	e9d5 1002 	ldrd	r1, r0, [r5, #8]
20003dd2:	f000 fe67 	bl	20004aa4 <spi_manager_init_spi>
20003dd6:	2064      	movs	r0, #100	@ 0x64
20003dd8:	f7fd fc56 	bl	20001688 <sleep_ms>
20003ddc:	7928      	ldrb	r0, [r5, #4]
20003dde:	f000 fea9 	bl	20004b34 <ce_put_low>
20003de2:	2001      	movs	r0, #1
20003de4:	f7fd fc50 	bl	20001688 <sleep_ms>
20003de8:	78e8      	ldrb	r0, [r5, #3]
20003dea:	f000 fe91 	bl	20004b10 <csn_put_high>
20003dee:	2c00      	cmp	r4, #0
20003df0:	d036      	beq.n	20003e60 <nrf_driver_initialise+0x9c>
20003df2:	7821      	ldrb	r1, [r4, #0]
20003df4:	f894 c006 	ldrb.w	ip, [r4, #6]
20003df8:	1e4b      	subs	r3, r1, #1
20003dfa:	2b02      	cmp	r3, #2
20003dfc:	bf98      	it	ls
20003dfe:	2301      	movls	r3, #1
20003e00:	7920      	ldrb	r0, [r4, #4]
20003e02:	f1ac 0802 	sub.w	r8, ip, #2
20003e06:	bf88      	it	hi
20003e08:	2300      	movhi	r3, #0
20003e0a:	f1b8 0f7b 	cmp.w	r8, #123	@ 0x7b
20003e0e:	bf98      	it	ls
20003e10:	3301      	addls	r3, #1
20003e12:	f010 0ff7 	tst.w	r0, #247	@ 0xf7
20003e16:	7867      	ldrb	r7, [r4, #1]
20003e18:	78a2      	ldrb	r2, [r4, #2]
20003e1a:	f894 e003 	ldrb.w	lr, [r4, #3]
20003e1e:	7966      	ldrb	r6, [r4, #5]
20003e20:	d025      	beq.n	20003e6e <nrf_driver_initialise+0xaa>
20003e22:	2820      	cmp	r0, #32
20003e24:	d023      	beq.n	20003e6e <nrf_driver_initialise+0xaa>
20003e26:	2f3f      	cmp	r7, #63	@ 0x3f
20003e28:	d000      	beq.n	20003e2c <nrf_driver_initialise+0x68>
20003e2a:	b90f      	cbnz	r7, 20003e30 <nrf_driver_initialise+0x6c>
20003e2c:	3301      	adds	r3, #1
20003e2e:	b2db      	uxtb	r3, r3
20003e30:	b366      	cbz	r6, 20003e8c <nrf_driver_initialise+0xc8>
20003e32:	2e02      	cmp	r6, #2
20003e34:	d001      	beq.n	20003e3a <nrf_driver_initialise+0x76>
20003e36:	2e04      	cmp	r6, #4
20003e38:	d11e      	bne.n	20003e78 <nrf_driver_initialise+0xb4>
20003e3a:	3301      	adds	r3, #1
20003e3c:	f1be 0f0f 	cmp.w	lr, #15
20003e40:	b2db      	uxtb	r3, r3
20003e42:	d81e      	bhi.n	20003e82 <nrf_driver_initialise+0xbe>
20003e44:	3301      	adds	r3, #1
20003e46:	b2db      	uxtb	r3, r3
20003e48:	b12a      	cbz	r2, 20003e56 <nrf_driver_initialise+0x92>
20003e4a:	2a10      	cmp	r2, #16
20003e4c:	d003      	beq.n	20003e56 <nrf_driver_initialise+0x92>
20003e4e:	2a20      	cmp	r2, #32
20003e50:	d001      	beq.n	20003e56 <nrf_driver_initialise+0x92>
20003e52:	2a30      	cmp	r2, #48	@ 0x30
20003e54:	d101      	bne.n	20003e5a <nrf_driver_initialise+0x96>
20003e56:	3301      	adds	r3, #1
20003e58:	b2db      	uxtb	r3, r3
20003e5a:	2b07      	cmp	r3, #7
20003e5c:	d01e      	beq.n	20003e9c <nrf_driver_initialise+0xd8>
20003e5e:	2400      	movs	r4, #0
20003e60:	68e8      	ldr	r0, [r5, #12]
20003e62:	f000 fe37 	bl	20004ad4 <spi_manager_deinit_spi>
20003e66:	4620      	mov	r0, r4
20003e68:	b008      	add	sp, #32
20003e6a:	e8bd 81f0 	ldmia.w	sp!, {r4, r5, r6, r7, r8, pc}
20003e6e:	3301      	adds	r3, #1
20003e70:	2f3f      	cmp	r7, #63	@ 0x3f
20003e72:	b2db      	uxtb	r3, r3
20003e74:	d1d9      	bne.n	20003e2a <nrf_driver_initialise+0x66>
20003e76:	e7d9      	b.n	20003e2c <nrf_driver_initialise+0x68>
20003e78:	2e06      	cmp	r6, #6
20003e7a:	d007      	beq.n	20003e8c <nrf_driver_initialise+0xc8>
20003e7c:	f1be 0f0f 	cmp.w	lr, #15
20003e80:	d9e0      	bls.n	20003e44 <nrf_driver_initialise+0x80>
20003e82:	2a00      	cmp	r2, #0
20003e84:	d0eb      	beq.n	20003e5e <nrf_driver_initialise+0x9a>
20003e86:	2a10      	cmp	r2, #16
20003e88:	d1e1      	bne.n	20003e4e <nrf_driver_initialise+0x8a>
20003e8a:	e7e8      	b.n	20003e5e <nrf_driver_initialise+0x9a>
20003e8c:	3301      	adds	r3, #1
20003e8e:	f1be 0f0f 	cmp.w	lr, #15
20003e92:	b2db      	uxtb	r3, r3
20003e94:	d8d8      	bhi.n	20003e48 <nrf_driver_initialise+0x84>
20003e96:	3301      	adds	r3, #1
20003e98:	b2db      	uxtb	r3, r3
20003e9a:	e7d5      	b.n	20003e48 <nrf_driver_initialise+0x84>
20003e9c:	f240 531d 	movw	r3, #1309	@ 0x51d
20003ea0:	ea42 0e0e 	orr.w	lr, r2, lr
20003ea4:	f247 0207 	movw	r2, #28679	@ 0x7007
20003ea8:	f8ad 3018 	strh.w	r3, [sp, #24]
20003eac:	231c      	movs	r3, #28
20003eae:	f8ad 201c 	strh.w	r2, [sp, #28]
20003eb2:	2204      	movs	r2, #4
20003eb4:	4330      	orrs	r0, r6
20003eb6:	f88d 0017 	strb.w	r0, [sp, #23]
20003eba:	2003      	movs	r0, #3
20003ebc:	f88d 301a 	strb.w	r3, [sp, #26]
20003ec0:	2305      	movs	r3, #5
20003ec2:	2903      	cmp	r1, #3
20003ec4:	f88d 2012 	strb.w	r2, [sp, #18]
20003ec8:	f04f 0206 	mov.w	r2, #6
20003ecc:	f88d 1011 	strb.w	r1, [sp, #17]
20003ed0:	bf28      	it	cs
20003ed2:	2103      	movcs	r1, #3
20003ed4:	f88d 0010 	strb.w	r0, [sp, #16]
20003ed8:	6820      	ldr	r0, [r4, #0]
20003eda:	f88d 3014 	strb.w	r3, [sp, #20]
20003ede:	4b33      	ldr	r3, [pc, #204]	@ (20003fac <nrf_driver_initialise+0x1e8>)
20003ee0:	6128      	str	r0, [r5, #16]
20003ee2:	88a0      	ldrh	r0, [r4, #4]
20003ee4:	f88d 2016 	strb.w	r2, [sp, #22]
20003ee8:	9303      	str	r3, [sp, #12]
20003eea:	79a2      	ldrb	r2, [r4, #6]
20003eec:	4b30      	ldr	r3, [pc, #192]	@ (20003fb0 <nrf_driver_initialise+0x1ec>)
20003eee:	3102      	adds	r1, #2
20003ef0:	75e9      	strb	r1, [r5, #23]
20003ef2:	f88d e013 	strb.w	lr, [sp, #19]
20003ef6:	f88d c015 	strb.w	ip, [sp, #21]
20003efa:	f88d 701b 	strb.w	r7, [sp, #27]
20003efe:	ae03      	add	r6, sp, #12
20003f00:	8098      	strh	r0, [r3, #4]
20003f02:	719a      	strb	r2, [r3, #6]
20003f04:	f10d 081c 	add.w	r8, sp, #28
20003f08:	e003      	b.n	20003f12 <nrf_driver_initialise+0x14e>
20003f0a:	3602      	adds	r6, #2
20003f0c:	b1f4      	cbz	r4, 20003f4c <nrf_driver_initialise+0x188>
20003f0e:	4546      	cmp	r6, r8
20003f10:	d01c      	beq.n	20003f4c <nrf_driver_initialise+0x188>
20003f12:	7837      	ldrb	r7, [r6, #0]
20003f14:	78e8      	ldrb	r0, [r5, #3]
20003f16:	f007 031f 	and.w	r3, r7, #31
20003f1a:	f043 0320 	orr.w	r3, r3, #32
20003f1e:	f88d 3004 	strb.w	r3, [sp, #4]
20003f22:	7873      	ldrb	r3, [r6, #1]
20003f24:	f88d 3005 	strb.w	r3, [sp, #5]
20003f28:	f000 fdf8 	bl	20004b1c <csn_put_low>
20003f2c:	2302      	movs	r3, #2
20003f2e:	68e8      	ldr	r0, [r5, #12]
20003f30:	aa02      	add	r2, sp, #8
20003f32:	a901      	add	r1, sp, #4
20003f34:	f000 fdd0 	bl	20004ad8 <spi_manager_transfer>
20003f38:	4604      	mov	r4, r0
20003f3a:	78e8      	ldrb	r0, [r5, #3]
20003f3c:	f000 fde8 	bl	20004b10 <csn_put_high>
20003f40:	2f00      	cmp	r7, #0
20003f42:	d1e2      	bne.n	20003f0a <nrf_driver_initialise+0x146>
20003f44:	2005      	movs	r0, #5
20003f46:	f7fd fb9f 	bl	20001688 <sleep_ms>
20003f4a:	e7de      	b.n	20003f0a <nrf_driver_initialise+0x146>
20003f4c:	78e8      	ldrb	r0, [r5, #3]
20003f4e:	f000 fde5 	bl	20004b1c <csn_put_low>
20003f52:	2002      	movs	r0, #2
20003f54:	2100      	movs	r1, #0
20003f56:	f7fd fb2b 	bl	200015b0 <sleep_us>
20003f5a:	23e1      	movs	r3, #225	@ 0xe1
20003f5c:	2201      	movs	r2, #1
20003f5e:	a902      	add	r1, sp, #8
20003f60:	68e8      	ldr	r0, [r5, #12]
20003f62:	f88d 3008 	strb.w	r3, [sp, #8]
20003f66:	f7fc fa29 	bl	200003bc <spi_write_blocking>
20003f6a:	2100      	movs	r1, #0
20003f6c:	2002      	movs	r0, #2
20003f6e:	f7fd fb1f 	bl	200015b0 <sleep_us>
20003f72:	78e8      	ldrb	r0, [r5, #3]
20003f74:	f000 fdcc 	bl	20004b10 <csn_put_high>
20003f78:	78e8      	ldrb	r0, [r5, #3]
20003f7a:	f000 fdcf 	bl	20004b1c <csn_put_low>
20003f7e:	2002      	movs	r0, #2
20003f80:	2100      	movs	r1, #0
20003f82:	f7fd fb15 	bl	200015b0 <sleep_us>
20003f86:	23e2      	movs	r3, #226	@ 0xe2
20003f88:	2201      	movs	r2, #1
20003f8a:	a902      	add	r1, sp, #8
20003f8c:	68e8      	ldr	r0, [r5, #12]
20003f8e:	f88d 3008 	strb.w	r3, [sp, #8]
20003f92:	f7fc fa13 	bl	200003bc <spi_write_blocking>
20003f96:	2002      	movs	r0, #2
20003f98:	2100      	movs	r1, #0
20003f9a:	f7fd fb09 	bl	200015b0 <sleep_us>
20003f9e:	78e8      	ldrb	r0, [r5, #3]
20003fa0:	f000 fdb6 	bl	20004b10 <csn_put_high>
20003fa4:	e75c      	b.n	20003e60 <nrf_driver_initialise+0x9c>
20003fa6:	bf00      	nop
20003fa8:	20005330 	.word	0x20005330
20003fac:	3f010e00 	.word	0x3f010e00
20003fb0:	20005340 	.word	0x20005340

20003fb4 <nrf_driver_rf_data_rate>:
20003fb4:	b530      	push	{r4, r5, lr}
20003fb6:	4604      	mov	r4, r0
20003fb8:	4d20      	ldr	r5, [pc, #128]	@ (2000403c <nrf_driver_rf_data_rate+0x88>)
20003fba:	b083      	sub	sp, #12
20003fbc:	e9d5 1002 	ldrd	r1, r0, [r5, #8]
20003fc0:	f000 fd70 	bl	20004aa4 <spi_manager_init_spi>
20003fc4:	f014 0ff7 	tst.w	r4, #247	@ 0xf7
20003fc8:	d006      	beq.n	20003fd8 <nrf_driver_rf_data_rate+0x24>
20003fca:	2c20      	cmp	r4, #32
20003fcc:	bf18      	it	ne
20003fce:	2400      	movne	r4, #0
20003fd0:	d002      	beq.n	20003fd8 <nrf_driver_rf_data_rate+0x24>
20003fd2:	4620      	mov	r0, r4
20003fd4:	b003      	add	sp, #12
20003fd6:	bd30      	pop	{r4, r5, pc}
20003fd8:	f64f 7206 	movw	r2, #65286	@ 0xff06
20003fdc:	2300      	movs	r3, #0
20003fde:	78e8      	ldrb	r0, [r5, #3]
20003fe0:	f8ad 2000 	strh.w	r2, [sp]
20003fe4:	f8ad 3004 	strh.w	r3, [sp, #4]
20003fe8:	f000 fd98 	bl	20004b1c <csn_put_low>
20003fec:	4669      	mov	r1, sp
20003fee:	aa01      	add	r2, sp, #4
20003ff0:	2302      	movs	r3, #2
20003ff2:	68e8      	ldr	r0, [r5, #12]
20003ff4:	f000 fd70 	bl	20004ad8 <spi_manager_transfer>
20003ff8:	78e8      	ldrb	r0, [r5, #3]
20003ffa:	f000 fd89 	bl	20004b10 <csn_put_high>
20003ffe:	2226      	movs	r2, #38	@ 0x26
20004000:	f89d 3005 	ldrb.w	r3, [sp, #5]
20004004:	f004 0428 	and.w	r4, r4, #40	@ 0x28
20004008:	f003 0306 	and.w	r3, r3, #6
2000400c:	4323      	orrs	r3, r4
2000400e:	78e8      	ldrb	r0, [r5, #3]
20004010:	f88d 2000 	strb.w	r2, [sp]
20004014:	f88d 3001 	strb.w	r3, [sp, #1]
20004018:	f000 fd80 	bl	20004b1c <csn_put_low>
2000401c:	2302      	movs	r3, #2
2000401e:	4669      	mov	r1, sp
20004020:	aa01      	add	r2, sp, #4
20004022:	68e8      	ldr	r0, [r5, #12]
20004024:	f000 fd58 	bl	20004ad8 <spi_manager_transfer>
20004028:	4604      	mov	r4, r0
2000402a:	78e8      	ldrb	r0, [r5, #3]
2000402c:	f000 fd70 	bl	20004b10 <csn_put_high>
20004030:	68e8      	ldr	r0, [r5, #12]
20004032:	f000 fd4f 	bl	20004ad4 <spi_manager_deinit_spi>
20004036:	4620      	mov	r0, r4
20004038:	b003      	add	sp, #12
2000403a:	bd30      	pop	{r4, r5, pc}
2000403c:	20005330 	.word	0x20005330

20004040 <nrf_driver_receiver_mode>:
20004040:	e92d 47f0 	stmdb	sp!, {r4, r5, r6, r7, r8, r9, sl, lr}
20004044:	b082      	sub	sp, #8
20004046:	4c33      	ldr	r4, [pc, #204]	@ (20004114 <nrf_driver_receiver_mode+0xd4>)
20004048:	af00      	add	r7, sp, #0
2000404a:	e9d4 1002 	ldrd	r1, r0, [r4, #8]
2000404e:	f000 fd29 	bl	20004aa4 <spi_manager_init_spi>
20004052:	f44f 427f 	mov.w	r2, #65280	@ 0xff00
20004056:	2300      	movs	r3, #0
20004058:	78e0      	ldrb	r0, [r4, #3]
2000405a:	803a      	strh	r2, [r7, #0]
2000405c:	80bb      	strh	r3, [r7, #4]
2000405e:	f000 fd5d 	bl	20004b1c <csn_put_low>
20004062:	2302      	movs	r3, #2
20004064:	1d3a      	adds	r2, r7, #4
20004066:	4639      	mov	r1, r7
20004068:	68e0      	ldr	r0, [r4, #12]
2000406a:	f000 fd35 	bl	20004ad8 <spi_manager_transfer>
2000406e:	78e0      	ldrb	r0, [r4, #3]
20004070:	f000 fd4e 	bl	20004b10 <csn_put_high>
20004074:	797b      	ldrb	r3, [r7, #5]
20004076:	07da      	lsls	r2, r3, #31
20004078:	d513      	bpl.n	200040a2 <nrf_driver_receiver_mode+0x62>
2000407a:	7e63      	ldrb	r3, [r4, #25]
2000407c:	2503      	movs	r5, #3
2000407e:	bb2b      	cbnz	r3, 200040cc <nrf_driver_receiver_mode+0x8c>
20004080:	7920      	ldrb	r0, [r4, #4]
20004082:	f000 fd51 	bl	20004b28 <ce_put_high>
20004086:	2100      	movs	r1, #0
20004088:	2082      	movs	r0, #130	@ 0x82
2000408a:	f7fd fa91 	bl	200015b0 <sleep_us>
2000408e:	2303      	movs	r3, #3
20004090:	68e0      	ldr	r0, [r4, #12]
20004092:	7623      	strb	r3, [r4, #24]
20004094:	f000 fd1e 	bl	20004ad4 <spi_manager_deinit_spi>
20004098:	4628      	mov	r0, r5
2000409a:	3708      	adds	r7, #8
2000409c:	46bd      	mov	sp, r7
2000409e:	e8bd 87f0 	ldmia.w	sp!, {r4, r5, r6, r7, r8, r9, sl, pc}
200040a2:	2220      	movs	r2, #32
200040a4:	f043 0301 	orr.w	r3, r3, #1
200040a8:	78e0      	ldrb	r0, [r4, #3]
200040aa:	707b      	strb	r3, [r7, #1]
200040ac:	703a      	strb	r2, [r7, #0]
200040ae:	f000 fd35 	bl	20004b1c <csn_put_low>
200040b2:	2302      	movs	r3, #2
200040b4:	4639      	mov	r1, r7
200040b6:	1d3a      	adds	r2, r7, #4
200040b8:	68e0      	ldr	r0, [r4, #12]
200040ba:	f000 fd0d 	bl	20004ad8 <spi_manager_transfer>
200040be:	4605      	mov	r5, r0
200040c0:	78e0      	ldrb	r0, [r4, #3]
200040c2:	f000 fd25 	bl	20004b10 <csn_put_high>
200040c6:	7e63      	ldrb	r3, [r4, #25]
200040c8:	2b00      	cmp	r3, #0
200040ca:	d0d9      	beq.n	20004080 <nrf_driver_receiver_mode+0x40>
200040cc:	7de2      	ldrb	r2, [r4, #23]
200040ce:	46e8      	mov	r8, sp
200040d0:	f102 0308 	add.w	r3, r2, #8
200040d4:	f403 73fc 	and.w	r3, r3, #504	@ 0x1f8
200040d8:	ebad 0d03 	sub.w	sp, sp, r3
200040dc:	466e      	mov	r6, sp
200040de:	ebad 0d03 	sub.w	sp, sp, r3
200040e2:	232a      	movs	r3, #42	@ 0x2a
200040e4:	46e9      	mov	r9, sp
200040e6:	f102 0a01 	add.w	sl, r2, #1
200040ea:	7033      	strb	r3, [r6, #0]
200040ec:	b11a      	cbz	r2, 200040f6 <nrf_driver_receiver_mode+0xb6>
200040ee:	490a      	ldr	r1, [pc, #40]	@ (20004118 <nrf_driver_receiver_mode+0xd8>)
200040f0:	1c70      	adds	r0, r6, #1
200040f2:	f000 ff65 	bl	20004fc0 <memcpy>
200040f6:	78e0      	ldrb	r0, [r4, #3]
200040f8:	f000 fd10 	bl	20004b1c <csn_put_low>
200040fc:	4653      	mov	r3, sl
200040fe:	464a      	mov	r2, r9
20004100:	4631      	mov	r1, r6
20004102:	68e0      	ldr	r0, [r4, #12]
20004104:	f000 fce8 	bl	20004ad8 <spi_manager_transfer>
20004108:	78e0      	ldrb	r0, [r4, #3]
2000410a:	f000 fd01 	bl	20004b10 <csn_put_high>
2000410e:	46c5      	mov	sp, r8
20004110:	e7b6      	b.n	20004080 <nrf_driver_receiver_mode+0x40>
20004112:	bf00      	nop
20004114:	20005330 	.word	0x20005330
20004118:	2000534a 	.word	0x2000534a

2000411c <nrf_driver_auto_retransmission>:
2000411c:	b570      	push	{r4, r5, r6, lr}
2000411e:	460d      	mov	r5, r1
20004120:	4c17      	ldr	r4, [pc, #92]	@ (20004180 <nrf_driver_auto_retransmission+0x64>)
20004122:	4606      	mov	r6, r0
20004124:	e9d4 1002 	ldrd	r1, r0, [r4, #8]
20004128:	b082      	sub	sp, #8
2000412a:	f000 fcbb 	bl	20004aa4 <spi_manager_init_spi>
2000412e:	2d0f      	cmp	r5, #15
20004130:	d804      	bhi.n	2000413c <nrf_driver_auto_retransmission+0x20>
20004132:	f016 0fef 	tst.w	r6, #239	@ 0xef
20004136:	d008      	beq.n	2000414a <nrf_driver_auto_retransmission+0x2e>
20004138:	2e20      	cmp	r6, #32
2000413a:	d006      	beq.n	2000414a <nrf_driver_auto_retransmission+0x2e>
2000413c:	2500      	movs	r5, #0
2000413e:	68e0      	ldr	r0, [r4, #12]
20004140:	f000 fcc8 	bl	20004ad4 <spi_manager_deinit_spi>
20004144:	4628      	mov	r0, r5
20004146:	b002      	add	sp, #8
20004148:	bd70      	pop	{r4, r5, r6, pc}
2000414a:	2324      	movs	r3, #36	@ 0x24
2000414c:	ea45 0006 	orr.w	r0, r5, r6
20004150:	7802      	ldrb	r2, [r0, #0]
20004152:	78e0      	ldrb	r0, [r4, #3]
20004154:	f88d 2001 	strb.w	r2, [sp, #1]
20004158:	f88d 3000 	strb.w	r3, [sp]
2000415c:	f000 fcde 	bl	20004b1c <csn_put_low>
20004160:	2302      	movs	r3, #2
20004162:	4669      	mov	r1, sp
20004164:	aa01      	add	r2, sp, #4
20004166:	68e0      	ldr	r0, [r4, #12]
20004168:	f000 fcb6 	bl	20004ad8 <spi_manager_transfer>
2000416c:	4605      	mov	r5, r0
2000416e:	78e0      	ldrb	r0, [r4, #3]
20004170:	f000 fcce 	bl	20004b10 <csn_put_high>
20004174:	68e0      	ldr	r0, [r4, #12]
20004176:	f000 fcad 	bl	20004ad4 <spi_manager_deinit_spi>
2000417a:	4628      	mov	r0, r5
2000417c:	b002      	add	sp, #8
2000417e:	bd70      	pop	{r4, r5, r6, pc}
20004180:	20005330 	.word	0x20005330

20004184 <nrf_driver_rf_power>:
20004184:	b530      	push	{r4, r5, lr}
20004186:	4604      	mov	r4, r0
20004188:	4d22      	ldr	r5, [pc, #136]	@ (20004214 <nrf_driver_rf_power+0x90>)
2000418a:	b083      	sub	sp, #12
2000418c:	e9d5 1002 	ldrd	r1, r0, [r5, #8]
20004190:	f000 fc88 	bl	20004aa4 <spi_manager_init_spi>
20004194:	f014 0ffd 	tst.w	r4, #253	@ 0xfd
20004198:	d009      	beq.n	200041ae <nrf_driver_rf_power+0x2a>
2000419a:	2c04      	cmp	r4, #4
2000419c:	bf18      	it	ne
2000419e:	2400      	movne	r4, #0
200041a0:	d005      	beq.n	200041ae <nrf_driver_rf_power+0x2a>
200041a2:	68e8      	ldr	r0, [r5, #12]
200041a4:	f000 fc96 	bl	20004ad4 <spi_manager_deinit_spi>
200041a8:	4620      	mov	r0, r4
200041aa:	b003      	add	sp, #12
200041ac:	bd30      	pop	{r4, r5, pc}
200041ae:	f64f 7206 	movw	r2, #65286	@ 0xff06
200041b2:	2300      	movs	r3, #0
200041b4:	78e8      	ldrb	r0, [r5, #3]
200041b6:	f8ad 2000 	strh.w	r2, [sp]
200041ba:	f8ad 3004 	strh.w	r3, [sp, #4]
200041be:	f000 fcad 	bl	20004b1c <csn_put_low>
200041c2:	4669      	mov	r1, sp
200041c4:	aa01      	add	r2, sp, #4
200041c6:	2302      	movs	r3, #2
200041c8:	68e8      	ldr	r0, [r5, #12]
200041ca:	f000 fc85 	bl	20004ad8 <spi_manager_transfer>
200041ce:	78e8      	ldrb	r0, [r5, #3]
200041d0:	f000 fc9e 	bl	20004b10 <csn_put_high>
200041d4:	2226      	movs	r2, #38	@ 0x26
200041d6:	f89d 3005 	ldrb.w	r3, [sp, #5]
200041da:	f004 0406 	and.w	r4, r4, #6
200041de:	f003 0328 	and.w	r3, r3, #40	@ 0x28
200041e2:	431c      	orrs	r4, r3
200041e4:	78e8      	ldrb	r0, [r5, #3]
200041e6:	f88d 2000 	strb.w	r2, [sp]
200041ea:	f88d 4001 	strb.w	r4, [sp, #1]
200041ee:	f000 fc95 	bl	20004b1c <csn_put_low>
200041f2:	2302      	movs	r3, #2
200041f4:	4669      	mov	r1, sp
200041f6:	aa01      	add	r2, sp, #4
200041f8:	68e8      	ldr	r0, [r5, #12]
200041fa:	f000 fc6d 	bl	20004ad8 <spi_manager_transfer>
200041fe:	4604      	mov	r4, r0
20004200:	78e8      	ldrb	r0, [r5, #3]
20004202:	f000 fc85 	bl	20004b10 <csn_put_high>
20004206:	68e8      	ldr	r0, [r5, #12]
20004208:	f000 fc64 	bl	20004ad4 <spi_manager_deinit_spi>
2000420c:	4620      	mov	r0, r4
2000420e:	b003      	add	sp, #12
20004210:	bd30      	pop	{r4, r5, pc}
20004212:	bf00      	nop
20004214:	20005330 	.word	0x20005330

20004218 <nrf_driver_standby_mode>:
20004218:	b530      	push	{r4, r5, lr}
2000421a:	4c20      	ldr	r4, [pc, #128]	@ (2000429c <nrf_driver_standby_mode+0x84>)
2000421c:	b083      	sub	sp, #12
2000421e:	e9d4 1002 	ldrd	r1, r0, [r4, #8]
20004222:	f000 fc3f 	bl	20004aa4 <spi_manager_init_spi>
20004226:	7e23      	ldrb	r3, [r4, #24]
20004228:	2b03      	cmp	r3, #3
2000422a:	d005      	beq.n	20004238 <nrf_driver_standby_mode+0x20>
2000422c:	68e0      	ldr	r0, [r4, #12]
2000422e:	f000 fc51 	bl	20004ad4 <spi_manager_deinit_spi>
20004232:	2003      	movs	r0, #3
20004234:	b003      	add	sp, #12
20004236:	bd30      	pop	{r4, r5, pc}
20004238:	f44f 437f 	mov.w	r3, #65280	@ 0xff00
2000423c:	2500      	movs	r5, #0
2000423e:	78e0      	ldrb	r0, [r4, #3]
20004240:	f8ad 3000 	strh.w	r3, [sp]
20004244:	f8ad 5004 	strh.w	r5, [sp, #4]
20004248:	f000 fc68 	bl	20004b1c <csn_put_low>
2000424c:	4669      	mov	r1, sp
2000424e:	2302      	movs	r3, #2
20004250:	aa01      	add	r2, sp, #4
20004252:	68e0      	ldr	r0, [r4, #12]
20004254:	f000 fc40 	bl	20004ad8 <spi_manager_transfer>
20004258:	78e0      	ldrb	r0, [r4, #3]
2000425a:	f000 fc59 	bl	20004b10 <csn_put_high>
2000425e:	2220      	movs	r2, #32
20004260:	f89d 3005 	ldrb.w	r3, [sp, #5]
20004264:	78e0      	ldrb	r0, [r4, #3]
20004266:	f023 0301 	bic.w	r3, r3, #1
2000426a:	f88d 2000 	strb.w	r2, [sp]
2000426e:	f88d 3001 	strb.w	r3, [sp, #1]
20004272:	f000 fc53 	bl	20004b1c <csn_put_low>
20004276:	2302      	movs	r3, #2
20004278:	4669      	mov	r1, sp
2000427a:	aa01      	add	r2, sp, #4
2000427c:	68e0      	ldr	r0, [r4, #12]
2000427e:	f000 fc2b 	bl	20004ad8 <spi_manager_transfer>
20004282:	78e0      	ldrb	r0, [r4, #3]
20004284:	f000 fc44 	bl	20004b10 <csn_put_high>
20004288:	7920      	ldrb	r0, [r4, #4]
2000428a:	f000 fc53 	bl	20004b34 <ce_put_low>
2000428e:	2082      	movs	r0, #130	@ 0x82
20004290:	2100      	movs	r1, #0
20004292:	f7fd f98d 	bl	200015b0 <sleep_us>
20004296:	7625      	strb	r5, [r4, #24]
20004298:	e7c8      	b.n	2000422c <nrf_driver_standby_mode+0x14>
2000429a:	bf00      	nop
2000429c:	20005330 	.word	0x20005330

200042a0 <nrf_driver_payload_size>:
200042a0:	e92d 41f0 	stmdb	sp!, {r4, r5, r6, r7, r8, lr}
200042a4:	460e      	mov	r6, r1
200042a6:	4c29      	ldr	r4, [pc, #164]	@ (2000434c <nrf_driver_payload_size+0xac>)
200042a8:	4605      	mov	r5, r0
200042aa:	e9d4 1002 	ldrd	r1, r0, [r4, #8]
200042ae:	b084      	sub	sp, #16
200042b0:	f000 fbf8 	bl	20004aa4 <spi_manager_init_spi>
200042b4:	1e73      	subs	r3, r6, #1
200042b6:	2b1f      	cmp	r3, #31
200042b8:	d826      	bhi.n	20004308 <nrf_driver_payload_size+0x68>
200042ba:	f241 6315 	movw	r3, #5653	@ 0x1615
200042be:	4a24      	ldr	r2, [pc, #144]	@ (20004350 <nrf_driver_payload_size+0xb0>)
200042c0:	2d06      	cmp	r5, #6
200042c2:	b2f6      	uxtb	r6, r6
200042c4:	9202      	str	r2, [sp, #8]
200042c6:	f8ad 300c 	strh.w	r3, [sp, #12]
200042ca:	d125      	bne.n	20004318 <nrf_driver_payload_size+0x78>
200042cc:	af02      	add	r7, sp, #8
200042ce:	f10d 080e 	add.w	r8, sp, #14
200042d2:	f817 3b01 	ldrb.w	r3, [r7], #1
200042d6:	78e0      	ldrb	r0, [r4, #3]
200042d8:	f003 031f 	and.w	r3, r3, #31
200042dc:	f043 0320 	orr.w	r3, r3, #32
200042e0:	f88d 3000 	strb.w	r3, [sp]
200042e4:	f88d 6001 	strb.w	r6, [sp, #1]
200042e8:	f000 fc18 	bl	20004b1c <csn_put_low>
200042ec:	2302      	movs	r3, #2
200042ee:	4669      	mov	r1, sp
200042f0:	68e0      	ldr	r0, [r4, #12]
200042f2:	aa01      	add	r2, sp, #4
200042f4:	f000 fbf0 	bl	20004ad8 <spi_manager_transfer>
200042f8:	4605      	mov	r5, r0
200042fa:	78e0      	ldrb	r0, [r4, #3]
200042fc:	f000 fc08 	bl	20004b10 <csn_put_high>
20004300:	b11d      	cbz	r5, 2000430a <nrf_driver_payload_size+0x6a>
20004302:	45b8      	cmp	r8, r7
20004304:	d1e5      	bne.n	200042d2 <nrf_driver_payload_size+0x32>
20004306:	e000      	b.n	2000430a <nrf_driver_payload_size+0x6a>
20004308:	2500      	movs	r5, #0
2000430a:	68e0      	ldr	r0, [r4, #12]
2000430c:	f000 fbe2 	bl	20004ad4 <spi_manager_deinit_spi>
20004310:	4628      	mov	r0, r5
20004312:	b004      	add	sp, #16
20004314:	e8bd 81f0 	ldmia.w	sp!, {r4, r5, r6, r7, r8, pc}
20004318:	eb0d 0305 	add.w	r3, sp, r5
2000431c:	7a1b      	ldrb	r3, [r3, #8]
2000431e:	78e0      	ldrb	r0, [r4, #3]
20004320:	f003 031f 	and.w	r3, r3, #31
20004324:	f043 0320 	orr.w	r3, r3, #32
20004328:	f88d 3000 	strb.w	r3, [sp]
2000432c:	f88d 6001 	strb.w	r6, [sp, #1]
20004330:	f000 fbf4 	bl	20004b1c <csn_put_low>
20004334:	2302      	movs	r3, #2
20004336:	4669      	mov	r1, sp
20004338:	68e0      	ldr	r0, [r4, #12]
2000433a:	aa01      	add	r2, sp, #4
2000433c:	f000 fbcc 	bl	20004ad8 <spi_manager_transfer>
20004340:	4605      	mov	r5, r0
20004342:	78e0      	ldrb	r0, [r4, #3]
20004344:	f000 fbe4 	bl	20004b10 <csn_put_high>
20004348:	e7df      	b.n	2000430a <nrf_driver_payload_size+0x6a>
2000434a:	bf00      	nop
2000434c:	20005330 	.word	0x20005330
20004350:	14131211 	.word	0x14131211

20004354 <nrf_driver_is_packet>:
20004354:	b5f0      	push	{r4, r5, r6, r7, lr}
20004356:	4c41      	ldr	r4, [pc, #260]	@ (2000445c <nrf_driver_is_packet+0x108>)
20004358:	b083      	sub	sp, #12
2000435a:	4605      	mov	r5, r0
2000435c:	e9d4 1002 	ldrd	r1, r0, [r4, #8]
20004360:	f000 fba0 	bl	20004aa4 <spi_manager_init_spi>
20004364:	f64f 7207 	movw	r2, #65287	@ 0xff07
20004368:	2300      	movs	r3, #0
2000436a:	78e0      	ldrb	r0, [r4, #3]
2000436c:	f8ad 2000 	strh.w	r2, [sp]
20004370:	f8ad 3004 	strh.w	r3, [sp, #4]
20004374:	f000 fbd2 	bl	20004b1c <csn_put_low>
20004378:	2302      	movs	r3, #2
2000437a:	aa01      	add	r2, sp, #4
2000437c:	4669      	mov	r1, sp
2000437e:	68e0      	ldr	r0, [r4, #12]
20004380:	f000 fbaa 	bl	20004ad8 <spi_manager_transfer>
20004384:	78e0      	ldrb	r0, [r4, #3]
20004386:	f000 fbc3 	bl	20004b10 <csn_put_high>
2000438a:	f89d 3005 	ldrb.w	r3, [sp, #5]
2000438e:	065a      	lsls	r2, r3, #25
20004390:	f003 0710 	and.w	r7, r3, #16
20004394:	f003 0620 	and.w	r6, r3, #32
20004398:	d409      	bmi.n	200043ae <nrf_driver_is_packet+0x5a>
2000439a:	bb2e      	cbnz	r6, 200043e8 <nrf_driver_is_packet+0x94>
2000439c:	2f00      	cmp	r7, #0
2000439e:	d135      	bne.n	2000440c <nrf_driver_is_packet+0xb8>
200043a0:	2500      	movs	r5, #0
200043a2:	68e0      	ldr	r0, [r4, #12]
200043a4:	f000 fb96 	bl	20004ad4 <spi_manager_deinit_spi>
200043a8:	4628      	mov	r0, r5
200043aa:	b003      	add	sp, #12
200043ac:	bdf0      	pop	{r4, r5, r6, r7, pc}
200043ae:	b115      	cbz	r5, 200043b6 <nrf_driver_is_packet+0x62>
200043b0:	f3c3 0342 	ubfx	r3, r3, #1, #3
200043b4:	702b      	strb	r3, [r5, #0]
200043b6:	f244 0327 	movw	r3, #16423	@ 0x4027
200043ba:	78e0      	ldrb	r0, [r4, #3]
200043bc:	f8ad 3000 	strh.w	r3, [sp]
200043c0:	f000 fbac 	bl	20004b1c <csn_put_low>
200043c4:	2302      	movs	r3, #2
200043c6:	4669      	mov	r1, sp
200043c8:	68e0      	ldr	r0, [r4, #12]
200043ca:	aa01      	add	r2, sp, #4
200043cc:	f000 fb84 	bl	20004ad8 <spi_manager_transfer>
200043d0:	78e0      	ldrb	r0, [r4, #3]
200043d2:	f000 fb9d 	bl	20004b10 <csn_put_high>
200043d6:	b93e      	cbnz	r6, 200043e8 <nrf_driver_is_packet+0x94>
200043d8:	b9c7      	cbnz	r7, 2000440c <nrf_driver_is_packet+0xb8>
200043da:	2503      	movs	r5, #3
200043dc:	68e0      	ldr	r0, [r4, #12]
200043de:	f000 fb79 	bl	20004ad4 <spi_manager_deinit_spi>
200043e2:	4628      	mov	r0, r5
200043e4:	b003      	add	sp, #12
200043e6:	bdf0      	pop	{r4, r5, r6, r7, pc}
200043e8:	f242 0327 	movw	r3, #8231	@ 0x2027
200043ec:	78e0      	ldrb	r0, [r4, #3]
200043ee:	f8ad 3000 	strh.w	r3, [sp]
200043f2:	f000 fb93 	bl	20004b1c <csn_put_low>
200043f6:	2302      	movs	r3, #2
200043f8:	4669      	mov	r1, sp
200043fa:	68e0      	ldr	r0, [r4, #12]
200043fc:	aa01      	add	r2, sp, #4
200043fe:	f000 fb6b 	bl	20004ad8 <spi_manager_transfer>
20004402:	78e0      	ldrb	r0, [r4, #3]
20004404:	f000 fb84 	bl	20004b10 <csn_put_high>
20004408:	2f00      	cmp	r7, #0
2000440a:	d0c9      	beq.n	200043a0 <nrf_driver_is_packet+0x4c>
2000440c:	f241 0327 	movw	r3, #4135	@ 0x1027
20004410:	78e0      	ldrb	r0, [r4, #3]
20004412:	f8ad 3000 	strh.w	r3, [sp]
20004416:	f000 fb81 	bl	20004b1c <csn_put_low>
2000441a:	aa01      	add	r2, sp, #4
2000441c:	2302      	movs	r3, #2
2000441e:	4669      	mov	r1, sp
20004420:	68e0      	ldr	r0, [r4, #12]
20004422:	f000 fb59 	bl	20004ad8 <spi_manager_transfer>
20004426:	78e0      	ldrb	r0, [r4, #3]
20004428:	f000 fb72 	bl	20004b10 <csn_put_high>
2000442c:	78e0      	ldrb	r0, [r4, #3]
2000442e:	f000 fb75 	bl	20004b1c <csn_put_low>
20004432:	2002      	movs	r0, #2
20004434:	2100      	movs	r1, #0
20004436:	f7fd f8bb 	bl	200015b0 <sleep_us>
2000443a:	23e1      	movs	r3, #225	@ 0xe1
2000443c:	2201      	movs	r2, #1
2000443e:	a901      	add	r1, sp, #4
20004440:	68e0      	ldr	r0, [r4, #12]
20004442:	f88d 3004 	strb.w	r3, [sp, #4]
20004446:	f7fb ffb9 	bl	200003bc <spi_write_blocking>
2000444a:	2002      	movs	r0, #2
2000444c:	2100      	movs	r1, #0
2000444e:	f7fd f8af 	bl	200015b0 <sleep_us>
20004452:	78e0      	ldrb	r0, [r4, #3]
20004454:	f000 fb5c 	bl	20004b10 <csn_put_high>
20004458:	e7a2      	b.n	200043a0 <nrf_driver_is_packet+0x4c>
2000445a:	bf00      	nop
2000445c:	20005330 	.word	0x20005330

20004460 <nrf_driver_rx_destination>:
20004460:	e92d 4ff0 	stmdb	sp!, {r4, r5, r6, r7, r8, r9, sl, fp, lr}
20004464:	b087      	sub	sp, #28
20004466:	4605      	mov	r5, r0
20004468:	4c52      	ldr	r4, [pc, #328]	@ (200045b4 <nrf_driver_rx_destination+0x154>)
2000446a:	af00      	add	r7, sp, #0
2000446c:	460e      	mov	r6, r1
2000446e:	e9d4 1002 	ldrd	r1, r0, [r4, #8]
20004472:	f000 fb17 	bl	20004aa4 <spi_manager_init_spi>
20004476:	4b50      	ldr	r3, [pc, #320]	@ (200045b8 <nrf_driver_rx_destination+0x158>)
20004478:	e893 0003 	ldmia.w	r3, {r0, r1}
2000447c:	6138      	str	r0, [r7, #16]
2000447e:	82b9      	strh	r1, [r7, #20]
20004480:	b155      	cbz	r5, 20004498 <nrf_driver_rx_destination+0x38>
20004482:	2d05      	cmp	r5, #5
20004484:	d970      	bls.n	20004568 <nrf_driver_rx_destination+0x108>
20004486:	2600      	movs	r6, #0
20004488:	68e0      	ldr	r0, [r4, #12]
2000448a:	f000 fb23 	bl	20004ad4 <spi_manager_deinit_spi>
2000448e:	4630      	mov	r0, r6
20004490:	371c      	adds	r7, #28
20004492:	46bd      	mov	sp, r7
20004494:	e8bd 8ff0 	ldmia.w	sp!, {r4, r5, r6, r7, r8, r9, sl, fp, pc}
20004498:	2301      	movs	r3, #1
2000449a:	f894 9017 	ldrb.w	r9, [r4, #23]
2000449e:	4631      	mov	r1, r6
200044a0:	464a      	mov	r2, r9
200044a2:	f104 001a 	add.w	r0, r4, #26
200044a6:	7663      	strb	r3, [r4, #25]
200044a8:	f000 fd8a 	bl	20004fc0 <memcpy>
200044ac:	f107 0118 	add.w	r1, r7, #24
200044b0:	f811 3c08 	ldrb.w	r3, [r1, #-8]
200044b4:	f109 0108 	add.w	r1, r9, #8
200044b8:	f021 0107 	bic.w	r1, r1, #7
200044bc:	f8c7 d004 	str.w	sp, [r7, #4]
200044c0:	ebad 0d01 	sub.w	sp, sp, r1
200044c4:	46e8      	mov	r8, sp
200044c6:	f003 031f 	and.w	r3, r3, #31
200044ca:	ebad 0d01 	sub.w	sp, sp, r1
200044ce:	f043 0320 	orr.w	r3, r3, #32
200044d2:	46eb      	mov	fp, sp
200044d4:	f888 3000 	strb.w	r3, [r8]
200044d8:	f109 0a01 	add.w	sl, r9, #1
200044dc:	f1b9 0f00 	cmp.w	r9, #0
200044e0:	d005      	beq.n	200044ee <nrf_driver_rx_destination+0x8e>
200044e2:	464a      	mov	r2, r9
200044e4:	4631      	mov	r1, r6
200044e6:	f108 0001 	add.w	r0, r8, #1
200044ea:	f000 fd69 	bl	20004fc0 <memcpy>
200044ee:	78e0      	ldrb	r0, [r4, #3]
200044f0:	f000 fb14 	bl	20004b1c <csn_put_low>
200044f4:	4641      	mov	r1, r8
200044f6:	4653      	mov	r3, sl
200044f8:	465a      	mov	r2, fp
200044fa:	68e0      	ldr	r0, [r4, #12]
200044fc:	f000 faec 	bl	20004ad8 <spi_manager_transfer>
20004500:	4606      	mov	r6, r0
20004502:	78e0      	ldrb	r0, [r4, #3]
20004504:	f000 fb04 	bl	20004b10 <csn_put_high>
20004508:	f8d7 d004 	ldr.w	sp, [r7, #4]
2000450c:	f107 080c 	add.w	r8, r7, #12
20004510:	f107 0908 	add.w	r9, r7, #8
20004514:	f64f 7302 	movw	r3, #65282	@ 0xff02
20004518:	2200      	movs	r2, #0
2000451a:	78e0      	ldrb	r0, [r4, #3]
2000451c:	81ba      	strh	r2, [r7, #12]
2000451e:	813b      	strh	r3, [r7, #8]
20004520:	f000 fafc 	bl	20004b1c <csn_put_low>
20004524:	2302      	movs	r3, #2
20004526:	4642      	mov	r2, r8
20004528:	4649      	mov	r1, r9
2000452a:	68e0      	ldr	r0, [r4, #12]
2000452c:	f000 fad4 	bl	20004ad8 <spi_manager_transfer>
20004530:	78e0      	ldrb	r0, [r4, #3]
20004532:	f000 faed 	bl	20004b10 <csn_put_high>
20004536:	7b7b      	ldrb	r3, [r7, #13]
20004538:	fa43 f205 	asr.w	r2, r3, r5
2000453c:	07d2      	lsls	r2, r2, #31
2000453e:	d4a3      	bmi.n	20004488 <nrf_driver_rx_destination+0x28>
20004540:	2201      	movs	r2, #1
20004542:	2122      	movs	r1, #34	@ 0x22
20004544:	40aa      	lsls	r2, r5
20004546:	4313      	orrs	r3, r2
20004548:	78e0      	ldrb	r0, [r4, #3]
2000454a:	7239      	strb	r1, [r7, #8]
2000454c:	727b      	strb	r3, [r7, #9]
2000454e:	f000 fae5 	bl	20004b1c <csn_put_low>
20004552:	2302      	movs	r3, #2
20004554:	4642      	mov	r2, r8
20004556:	4649      	mov	r1, r9
20004558:	68e0      	ldr	r0, [r4, #12]
2000455a:	f000 fabd 	bl	20004ad8 <spi_manager_transfer>
2000455e:	4606      	mov	r6, r0
20004560:	78e0      	ldrb	r0, [r4, #3]
20004562:	f000 fad5 	bl	20004b10 <csn_put_high>
20004566:	e78f      	b.n	20004488 <nrf_driver_rx_destination+0x28>
20004568:	f105 0310 	add.w	r3, r5, #16
2000456c:	f107 0208 	add.w	r2, r7, #8
20004570:	1899      	adds	r1, r3, r2
20004572:	f811 3c08 	ldrb.w	r3, [r1, #-8]
20004576:	2d01      	cmp	r5, #1
20004578:	f003 031f 	and.w	r3, r3, #31
2000457c:	78e0      	ldrb	r0, [r4, #3]
2000457e:	f043 0320 	orr.w	r3, r3, #32
20004582:	d013      	beq.n	200045ac <nrf_driver_rx_destination+0x14c>
20004584:	7832      	ldrb	r2, [r6, #0]
20004586:	f107 080c 	add.w	r8, r7, #12
2000458a:	f107 0908 	add.w	r9, r7, #8
2000458e:	723b      	strb	r3, [r7, #8]
20004590:	727a      	strb	r2, [r7, #9]
20004592:	f000 fac3 	bl	20004b1c <csn_put_low>
20004596:	2302      	movs	r3, #2
20004598:	4642      	mov	r2, r8
2000459a:	4649      	mov	r1, r9
2000459c:	68e0      	ldr	r0, [r4, #12]
2000459e:	f000 fa9b 	bl	20004ad8 <spi_manager_transfer>
200045a2:	4606      	mov	r6, r0
200045a4:	78e0      	ldrb	r0, [r4, #3]
200045a6:	f000 fab3 	bl	20004b10 <csn_put_high>
200045aa:	e7b3      	b.n	20004514 <nrf_driver_rx_destination+0xb4>
200045ac:	f894 9017 	ldrb.w	r9, [r4, #23]
200045b0:	e77e      	b.n	200044b0 <nrf_driver_rx_destination+0x50>
200045b2:	bf00      	nop
200045b4:	20005330 	.word	0x20005330
200045b8:	20005214 	.word	0x20005214

200045bc <nrf_driver_send_packet>:
200045bc:	e92d 4ff0 	stmdb	sp!, {r4, r5, r6, r7, r8, r9, sl, fp, lr}
200045c0:	b085      	sub	sp, #20
200045c2:	4cba      	ldr	r4, [pc, #744]	@ (200048ac <nrf_driver_send_packet+0x2f0>)
200045c4:	4682      	mov	sl, r0
200045c6:	7e23      	ldrb	r3, [r4, #24]
200045c8:	4688      	mov	r8, r1
200045ca:	2b03      	cmp	r3, #3
200045cc:	af00      	add	r7, sp, #0
200045ce:	f000 8129 	beq.w	20004824 <nrf_driver_send_packet+0x268>
200045d2:	f107 050c 	add.w	r5, r7, #12
200045d6:	f107 0608 	add.w	r6, r7, #8
200045da:	e9d4 1002 	ldrd	r1, r0, [r4, #8]
200045de:	f000 fa61 	bl	20004aa4 <spi_manager_init_spi>
200045e2:	f108 0308 	add.w	r3, r8, #8
200045e6:	f023 0307 	bic.w	r3, r3, #7
200045ea:	ebad 0d03 	sub.w	sp, sp, r3
200045ee:	46e9      	mov	r9, sp
200045f0:	22a0      	movs	r2, #160	@ 0xa0
200045f2:	f108 0b01 	add.w	fp, r8, #1
200045f6:	ebad 0d03 	sub.w	sp, sp, r3
200045fa:	f1bb 0f01 	cmp.w	fp, #1
200045fe:	f889 2000 	strb.w	r2, [r9]
20004602:	f8c7 d004 	str.w	sp, [r7, #4]
20004606:	d905      	bls.n	20004614 <nrf_driver_send_packet+0x58>
20004608:	4642      	mov	r2, r8
2000460a:	4651      	mov	r1, sl
2000460c:	f109 0001 	add.w	r0, r9, #1
20004610:	f000 fcd6 	bl	20004fc0 <memcpy>
20004614:	7920      	ldrb	r0, [r4, #4]
20004616:	f000 fa87 	bl	20004b28 <ce_put_high>
2000461a:	78e0      	ldrb	r0, [r4, #3]
2000461c:	f000 fa7e 	bl	20004b1c <csn_put_low>
20004620:	465b      	mov	r3, fp
20004622:	687a      	ldr	r2, [r7, #4]
20004624:	4649      	mov	r1, r9
20004626:	68e0      	ldr	r0, [r4, #12]
20004628:	f000 fa56 	bl	20004ad8 <spi_manager_transfer>
2000462c:	f04f 0b02 	mov.w	fp, #2
20004630:	4681      	mov	r9, r0
20004632:	78e0      	ldrb	r0, [r4, #3]
20004634:	f000 fa6c 	bl	20004b10 <csn_put_high>
20004638:	2100      	movs	r1, #0
2000463a:	200f      	movs	r0, #15
2000463c:	f884 b018 	strb.w	fp, [r4, #24]
20004640:	f7fc ffb6 	bl	200015b0 <sleep_us>
20004644:	7920      	ldrb	r0, [r4, #4]
20004646:	f000 fa75 	bl	20004b34 <ce_put_low>
2000464a:	2300      	movs	r3, #0
2000464c:	f64f 7207 	movw	r2, #65287	@ 0xff07
20004650:	78e0      	ldrb	r0, [r4, #3]
20004652:	813a      	strh	r2, [r7, #8]
20004654:	7623      	strb	r3, [r4, #24]
20004656:	81bb      	strh	r3, [r7, #12]
20004658:	f000 fa60 	bl	20004b1c <csn_put_low>
2000465c:	465b      	mov	r3, fp
2000465e:	462a      	mov	r2, r5
20004660:	4631      	mov	r1, r6
20004662:	68e0      	ldr	r0, [r4, #12]
20004664:	f000 fa38 	bl	20004ad8 <spi_manager_transfer>
20004668:	78e0      	ldrb	r0, [r4, #3]
2000466a:	f000 fa51 	bl	20004b10 <csn_put_high>
2000466e:	f897 800d 	ldrb.w	r8, [r7, #13]
20004672:	f018 0340 	ands.w	r3, r8, #64	@ 0x40
20004676:	d00f      	beq.n	20004698 <nrf_driver_send_packet+0xdc>
20004678:	f244 0327 	movw	r3, #16423	@ 0x4027
2000467c:	78e0      	ldrb	r0, [r4, #3]
2000467e:	813b      	strh	r3, [r7, #8]
20004680:	f000 fa4c 	bl	20004b1c <csn_put_low>
20004684:	465b      	mov	r3, fp
20004686:	462a      	mov	r2, r5
20004688:	4631      	mov	r1, r6
2000468a:	68e0      	ldr	r0, [r4, #12]
2000468c:	f000 fa24 	bl	20004ad8 <spi_manager_transfer>
20004690:	78e0      	ldrb	r0, [r4, #3]
20004692:	f000 fa3d 	bl	20004b10 <csn_put_high>
20004696:	2301      	movs	r3, #1
20004698:	f018 0f20 	tst.w	r8, #32
2000469c:	f008 0a10 	and.w	sl, r8, #16
200046a0:	f040 8086 	bne.w	200047b0 <nrf_driver_send_packet+0x1f4>
200046a4:	f1ba 0f00 	cmp.w	sl, #0
200046a8:	f040 8094 	bne.w	200047d4 <nrf_driver_send_packet+0x218>
200046ac:	f1b9 0f02 	cmp.w	r9, #2
200046b0:	d007      	beq.n	200046c2 <nrf_driver_send_packet+0x106>
200046b2:	68e0      	ldr	r0, [r4, #12]
200046b4:	f000 fa0e 	bl	20004ad4 <spi_manager_deinit_spi>
200046b8:	2000      	movs	r0, #0
200046ba:	3714      	adds	r7, #20
200046bc:	46bd      	mov	sp, r7
200046be:	e8bd 8ff0 	ldmia.w	sp!, {r4, r5, r6, r7, r8, r9, sl, fp, pc}
200046c2:	2b00      	cmp	r3, #0
200046c4:	d1f5      	bne.n	200046b2 <nrf_driver_send_packet+0xf6>
200046c6:	f64f 7b07 	movw	fp, #65287	@ 0xff07
200046ca:	469a      	mov	sl, r3
200046cc:	78e0      	ldrb	r0, [r4, #3]
200046ce:	f8a7 b008 	strh.w	fp, [r7, #8]
200046d2:	f8a7 a00c 	strh.w	sl, [r7, #12]
200046d6:	f000 fa21 	bl	20004b1c <csn_put_low>
200046da:	2302      	movs	r3, #2
200046dc:	462a      	mov	r2, r5
200046de:	4631      	mov	r1, r6
200046e0:	68e0      	ldr	r0, [r4, #12]
200046e2:	f000 f9f9 	bl	20004ad8 <spi_manager_transfer>
200046e6:	78e0      	ldrb	r0, [r4, #3]
200046e8:	f000 fa12 	bl	20004b10 <csn_put_high>
200046ec:	7b7b      	ldrb	r3, [r7, #13]
200046ee:	f003 0820 	and.w	r8, r3, #32
200046f2:	f003 0910 	and.w	r9, r3, #16
200046f6:	065b      	lsls	r3, r3, #25
200046f8:	d539      	bpl.n	2000476e <nrf_driver_send_packet+0x1b2>
200046fa:	f244 0327 	movw	r3, #16423	@ 0x4027
200046fe:	78e0      	ldrb	r0, [r4, #3]
20004700:	813b      	strh	r3, [r7, #8]
20004702:	f000 fa0b 	bl	20004b1c <csn_put_low>
20004706:	2302      	movs	r3, #2
20004708:	462a      	mov	r2, r5
2000470a:	4631      	mov	r1, r6
2000470c:	68e0      	ldr	r0, [r4, #12]
2000470e:	f000 f9e3 	bl	20004ad8 <spi_manager_transfer>
20004712:	78e0      	ldrb	r0, [r4, #3]
20004714:	f000 f9fc 	bl	20004b10 <csn_put_high>
20004718:	f1b8 0f00 	cmp.w	r8, #0
2000471c:	d12e      	bne.n	2000477c <nrf_driver_send_packet+0x1c0>
2000471e:	f1b9 0f00 	cmp.w	r9, #0
20004722:	d0c6      	beq.n	200046b2 <nrf_driver_send_packet+0xf6>
20004724:	f241 0327 	movw	r3, #4135	@ 0x1027
20004728:	78e0      	ldrb	r0, [r4, #3]
2000472a:	813b      	strh	r3, [r7, #8]
2000472c:	f000 f9f6 	bl	20004b1c <csn_put_low>
20004730:	462a      	mov	r2, r5
20004732:	2302      	movs	r3, #2
20004734:	4631      	mov	r1, r6
20004736:	68e0      	ldr	r0, [r4, #12]
20004738:	f000 f9ce 	bl	20004ad8 <spi_manager_transfer>
2000473c:	78e0      	ldrb	r0, [r4, #3]
2000473e:	f000 f9e7 	bl	20004b10 <csn_put_high>
20004742:	78e0      	ldrb	r0, [r4, #3]
20004744:	f000 f9ea 	bl	20004b1c <csn_put_low>
20004748:	2002      	movs	r0, #2
2000474a:	2100      	movs	r1, #0
2000474c:	f7fc ff30 	bl	200015b0 <sleep_us>
20004750:	23e1      	movs	r3, #225	@ 0xe1
20004752:	2201      	movs	r2, #1
20004754:	4629      	mov	r1, r5
20004756:	68e0      	ldr	r0, [r4, #12]
20004758:	733b      	strb	r3, [r7, #12]
2000475a:	f7fb fe2f 	bl	200003bc <spi_write_blocking>
2000475e:	2002      	movs	r0, #2
20004760:	2100      	movs	r1, #0
20004762:	f7fc ff25 	bl	200015b0 <sleep_us>
20004766:	78e0      	ldrb	r0, [r4, #3]
20004768:	f000 f9d2 	bl	20004b10 <csn_put_high>
2000476c:	e7a1      	b.n	200046b2 <nrf_driver_send_packet+0xf6>
2000476e:	f1b8 0f00 	cmp.w	r8, #0
20004772:	d103      	bne.n	2000477c <nrf_driver_send_packet+0x1c0>
20004774:	f1b9 0f00 	cmp.w	r9, #0
20004778:	d0a8      	beq.n	200046cc <nrf_driver_send_packet+0x110>
2000477a:	e7d3      	b.n	20004724 <nrf_driver_send_packet+0x168>
2000477c:	f242 0327 	movw	r3, #8231	@ 0x2027
20004780:	78e0      	ldrb	r0, [r4, #3]
20004782:	813b      	strh	r3, [r7, #8]
20004784:	f000 f9ca 	bl	20004b1c <csn_put_low>
20004788:	2302      	movs	r3, #2
2000478a:	462a      	mov	r2, r5
2000478c:	4631      	mov	r1, r6
2000478e:	68e0      	ldr	r0, [r4, #12]
20004790:	f000 f9a2 	bl	20004ad8 <spi_manager_transfer>
20004794:	78e0      	ldrb	r0, [r4, #3]
20004796:	f000 f9bb 	bl	20004b10 <csn_put_high>
2000479a:	f1b9 0f00 	cmp.w	r9, #0
2000479e:	d1c1      	bne.n	20004724 <nrf_driver_send_packet+0x168>
200047a0:	68e0      	ldr	r0, [r4, #12]
200047a2:	f000 f997 	bl	20004ad4 <spi_manager_deinit_spi>
200047a6:	2003      	movs	r0, #3
200047a8:	3714      	adds	r7, #20
200047aa:	46bd      	mov	sp, r7
200047ac:	e8bd 8ff0 	ldmia.w	sp!, {r4, r5, r6, r7, r8, r9, sl, fp, pc}
200047b0:	f242 0327 	movw	r3, #8231	@ 0x2027
200047b4:	78e0      	ldrb	r0, [r4, #3]
200047b6:	813b      	strh	r3, [r7, #8]
200047b8:	f000 f9b0 	bl	20004b1c <csn_put_low>
200047bc:	2302      	movs	r3, #2
200047be:	462a      	mov	r2, r5
200047c0:	4631      	mov	r1, r6
200047c2:	68e0      	ldr	r0, [r4, #12]
200047c4:	f000 f988 	bl	20004ad8 <spi_manager_transfer>
200047c8:	78e0      	ldrb	r0, [r4, #3]
200047ca:	f000 f9a1 	bl	20004b10 <csn_put_high>
200047ce:	f1ba 0f00 	cmp.w	sl, #0
200047d2:	d0e5      	beq.n	200047a0 <nrf_driver_send_packet+0x1e4>
200047d4:	f241 0327 	movw	r3, #4135	@ 0x1027
200047d8:	78e0      	ldrb	r0, [r4, #3]
200047da:	813b      	strh	r3, [r7, #8]
200047dc:	f000 f99e 	bl	20004b1c <csn_put_low>
200047e0:	462a      	mov	r2, r5
200047e2:	2302      	movs	r3, #2
200047e4:	4631      	mov	r1, r6
200047e6:	68e0      	ldr	r0, [r4, #12]
200047e8:	f000 f976 	bl	20004ad8 <spi_manager_transfer>
200047ec:	78e0      	ldrb	r0, [r4, #3]
200047ee:	f000 f98f 	bl	20004b10 <csn_put_high>
200047f2:	78e0      	ldrb	r0, [r4, #3]
200047f4:	f000 f992 	bl	20004b1c <csn_put_low>
200047f8:	2002      	movs	r0, #2
200047fa:	2100      	movs	r1, #0
200047fc:	f7fc fed8 	bl	200015b0 <sleep_us>
20004800:	23e1      	movs	r3, #225	@ 0xe1
20004802:	2201      	movs	r2, #1
20004804:	4629      	mov	r1, r5
20004806:	68e0      	ldr	r0, [r4, #12]
20004808:	733b      	strb	r3, [r7, #12]
2000480a:	f7fb fdd7 	bl	200003bc <spi_write_blocking>
2000480e:	2100      	movs	r1, #0
20004810:	2002      	movs	r0, #2
20004812:	f7fc fecd 	bl	200015b0 <sleep_us>
20004816:	78e0      	ldrb	r0, [r4, #3]
20004818:	f000 f97a 	bl	20004b10 <csn_put_high>
2000481c:	68e0      	ldr	r0, [r4, #12]
2000481e:	f000 f959 	bl	20004ad4 <spi_manager_deinit_spi>
20004822:	e749      	b.n	200046b8 <nrf_driver_send_packet+0xfc>
20004824:	e9d4 1002 	ldrd	r1, r0, [r4, #8]
20004828:	f000 f93c 	bl	20004aa4 <spi_manager_init_spi>
2000482c:	7e23      	ldrb	r3, [r4, #24]
2000482e:	2b03      	cmp	r3, #3
20004830:	d009      	beq.n	20004846 <nrf_driver_send_packet+0x28a>
20004832:	f107 050c 	add.w	r5, r7, #12
20004836:	f107 0608 	add.w	r6, r7, #8
2000483a:	68e0      	ldr	r0, [r4, #12]
2000483c:	f000 f94a 	bl	20004ad4 <spi_manager_deinit_spi>
20004840:	2300      	movs	r3, #0
20004842:	7623      	strb	r3, [r4, #24]
20004844:	e6c9      	b.n	200045da <nrf_driver_send_packet+0x1e>
20004846:	f44f 437f 	mov.w	r3, #65280	@ 0xff00
2000484a:	f04f 0900 	mov.w	r9, #0
2000484e:	78e0      	ldrb	r0, [r4, #3]
20004850:	f107 050c 	add.w	r5, r7, #12
20004854:	f107 0608 	add.w	r6, r7, #8
20004858:	813b      	strh	r3, [r7, #8]
2000485a:	f8a7 900c 	strh.w	r9, [r7, #12]
2000485e:	f000 f95d 	bl	20004b1c <csn_put_low>
20004862:	462a      	mov	r2, r5
20004864:	4631      	mov	r1, r6
20004866:	2302      	movs	r3, #2
20004868:	68e0      	ldr	r0, [r4, #12]
2000486a:	f000 f935 	bl	20004ad8 <spi_manager_transfer>
2000486e:	78e0      	ldrb	r0, [r4, #3]
20004870:	f000 f94e 	bl	20004b10 <csn_put_high>
20004874:	2320      	movs	r3, #32
20004876:	723b      	strb	r3, [r7, #8]
20004878:	7b7b      	ldrb	r3, [r7, #13]
2000487a:	78e0      	ldrb	r0, [r4, #3]
2000487c:	f023 0301 	bic.w	r3, r3, #1
20004880:	727b      	strb	r3, [r7, #9]
20004882:	f000 f94b 	bl	20004b1c <csn_put_low>
20004886:	2302      	movs	r3, #2
20004888:	462a      	mov	r2, r5
2000488a:	4631      	mov	r1, r6
2000488c:	68e0      	ldr	r0, [r4, #12]
2000488e:	f000 f923 	bl	20004ad8 <spi_manager_transfer>
20004892:	78e0      	ldrb	r0, [r4, #3]
20004894:	f000 f93c 	bl	20004b10 <csn_put_high>
20004898:	7920      	ldrb	r0, [r4, #4]
2000489a:	f000 f94b 	bl	20004b34 <ce_put_low>
2000489e:	2082      	movs	r0, #130	@ 0x82
200048a0:	2100      	movs	r1, #0
200048a2:	f7fc fe85 	bl	200015b0 <sleep_us>
200048a6:	f884 9018 	strb.w	r9, [r4, #24]
200048aa:	e7c6      	b.n	2000483a <nrf_driver_send_packet+0x27e>
200048ac:	20005330 	.word	0x20005330

200048b0 <nrf_driver_dyn_payloads_enable>:
200048b0:	b530      	push	{r4, r5, lr}
200048b2:	4c2a      	ldr	r4, [pc, #168]	@ (2000495c <nrf_driver_dyn_payloads_enable+0xac>)
200048b4:	b083      	sub	sp, #12
200048b6:	e9d4 1002 	ldrd	r1, r0, [r4, #8]
200048ba:	f000 f8f3 	bl	20004aa4 <spi_manager_init_spi>
200048be:	7c63      	ldrb	r3, [r4, #17]
200048c0:	b133      	cbz	r3, 200048d0 <nrf_driver_dyn_payloads_enable+0x20>
200048c2:	2502      	movs	r5, #2
200048c4:	68e0      	ldr	r0, [r4, #12]
200048c6:	f000 f905 	bl	20004ad4 <spi_manager_deinit_spi>
200048ca:	4628      	mov	r0, r5
200048cc:	b003      	add	sp, #12
200048ce:	bd30      	pop	{r4, r5, pc}
200048d0:	f64f 721d 	movw	r2, #65309	@ 0xff1d
200048d4:	78e0      	ldrb	r0, [r4, #3]
200048d6:	f8ad 3004 	strh.w	r3, [sp, #4]
200048da:	f8ad 2000 	strh.w	r2, [sp]
200048de:	f000 f91d 	bl	20004b1c <csn_put_low>
200048e2:	4669      	mov	r1, sp
200048e4:	2302      	movs	r3, #2
200048e6:	aa01      	add	r2, sp, #4
200048e8:	68e0      	ldr	r0, [r4, #12]
200048ea:	f000 f8f5 	bl	20004ad8 <spi_manager_transfer>
200048ee:	78e0      	ldrb	r0, [r4, #3]
200048f0:	f000 f90e 	bl	20004b10 <csn_put_high>
200048f4:	223d      	movs	r2, #61	@ 0x3d
200048f6:	f89d 3005 	ldrb.w	r3, [sp, #5]
200048fa:	78e0      	ldrb	r0, [r4, #3]
200048fc:	f043 0304 	orr.w	r3, r3, #4
20004900:	f88d 2000 	strb.w	r2, [sp]
20004904:	f88d 3001 	strb.w	r3, [sp, #1]
20004908:	f000 f908 	bl	20004b1c <csn_put_low>
2000490c:	2302      	movs	r3, #2
2000490e:	4669      	mov	r1, sp
20004910:	68e0      	ldr	r0, [r4, #12]
20004912:	aa01      	add	r2, sp, #4
20004914:	f000 f8e0 	bl	20004ad8 <spi_manager_transfer>
20004918:	4605      	mov	r5, r0
2000491a:	78e0      	ldrb	r0, [r4, #3]
2000491c:	f000 f8f8 	bl	20004b10 <csn_put_high>
20004920:	b935      	cbnz	r5, 20004930 <nrf_driver_dyn_payloads_enable+0x80>
20004922:	68e0      	ldr	r0, [r4, #12]
20004924:	7465      	strb	r5, [r4, #17]
20004926:	f000 f8d5 	bl	20004ad4 <spi_manager_deinit_spi>
2000492a:	4628      	mov	r0, r5
2000492c:	b003      	add	sp, #12
2000492e:	bd30      	pop	{r4, r5, pc}
20004930:	233f      	movs	r3, #63	@ 0x3f
20004932:	2d02      	cmp	r5, #2
20004934:	7463      	strb	r3, [r4, #17]
20004936:	d1c5      	bne.n	200048c4 <nrf_driver_dyn_payloads_enable+0x14>
20004938:	f643 733c 	movw	r3, #16188	@ 0x3f3c
2000493c:	78e0      	ldrb	r0, [r4, #3]
2000493e:	f8ad 3000 	strh.w	r3, [sp]
20004942:	f000 f8eb 	bl	20004b1c <csn_put_low>
20004946:	462b      	mov	r3, r5
20004948:	4669      	mov	r1, sp
2000494a:	68e0      	ldr	r0, [r4, #12]
2000494c:	aa01      	add	r2, sp, #4
2000494e:	f000 f8c3 	bl	20004ad8 <spi_manager_transfer>
20004952:	4605      	mov	r5, r0
20004954:	78e0      	ldrb	r0, [r4, #3]
20004956:	f000 f8db 	bl	20004b10 <csn_put_high>
2000495a:	e7b3      	b.n	200048c4 <nrf_driver_dyn_payloads_enable+0x14>
2000495c:	20005330 	.word	0x20005330

20004960 <nrf_driver_dyn_payloads_disable>:
20004960:	b5f0      	push	{r4, r5, r6, r7, lr}
20004962:	4c2a      	ldr	r4, [pc, #168]	@ (20004a0c <nrf_driver_dyn_payloads_disable+0xac>)
20004964:	b083      	sub	sp, #12
20004966:	e9d4 1002 	ldrd	r1, r0, [r4, #8]
2000496a:	f000 f89b 	bl	20004aa4 <spi_manager_init_spi>
2000496e:	7c66      	ldrb	r6, [r4, #17]
20004970:	2e3f      	cmp	r6, #63	@ 0x3f
20004972:	d006      	beq.n	20004982 <nrf_driver_dyn_payloads_disable+0x22>
20004974:	2503      	movs	r5, #3
20004976:	68e0      	ldr	r0, [r4, #12]
20004978:	f000 f8ac 	bl	20004ad4 <spi_manager_deinit_spi>
2000497c:	4628      	mov	r0, r5
2000497e:	b003      	add	sp, #12
20004980:	bdf0      	pop	{r4, r5, r6, r7, pc}
20004982:	f64f 731d 	movw	r3, #65309	@ 0xff1d
20004986:	2700      	movs	r7, #0
20004988:	78e0      	ldrb	r0, [r4, #3]
2000498a:	f8ad 3000 	strh.w	r3, [sp]
2000498e:	f8ad 7004 	strh.w	r7, [sp, #4]
20004992:	f000 f8c3 	bl	20004b1c <csn_put_low>
20004996:	4669      	mov	r1, sp
20004998:	aa01      	add	r2, sp, #4
2000499a:	2302      	movs	r3, #2
2000499c:	68e0      	ldr	r0, [r4, #12]
2000499e:	f000 f89b 	bl	20004ad8 <spi_manager_transfer>
200049a2:	78e0      	ldrb	r0, [r4, #3]
200049a4:	f000 f8b4 	bl	20004b10 <csn_put_high>
200049a8:	233d      	movs	r3, #61	@ 0x3d
200049aa:	f88d 3000 	strb.w	r3, [sp]
200049ae:	f89d 3005 	ldrb.w	r3, [sp, #5]
200049b2:	78e0      	ldrb	r0, [r4, #3]
200049b4:	f023 0304 	bic.w	r3, r3, #4
200049b8:	f88d 3001 	strb.w	r3, [sp, #1]
200049bc:	f000 f8ae 	bl	20004b1c <csn_put_low>
200049c0:	2302      	movs	r3, #2
200049c2:	4669      	mov	r1, sp
200049c4:	68e0      	ldr	r0, [r4, #12]
200049c6:	aa01      	add	r2, sp, #4
200049c8:	f000 f886 	bl	20004ad8 <spi_manager_transfer>
200049cc:	4605      	mov	r5, r0
200049ce:	78e0      	ldrb	r0, [r4, #3]
200049d0:	f000 f89e 	bl	20004b10 <csn_put_high>
200049d4:	b19d      	cbz	r5, 200049fe <nrf_driver_dyn_payloads_disable+0x9e>
200049d6:	2d02      	cmp	r5, #2
200049d8:	7467      	strb	r7, [r4, #17]
200049da:	d1cc      	bne.n	20004976 <nrf_driver_dyn_payloads_disable+0x16>
200049dc:	233c      	movs	r3, #60	@ 0x3c
200049de:	78e0      	ldrb	r0, [r4, #3]
200049e0:	f8ad 3000 	strh.w	r3, [sp]
200049e4:	f000 f89a 	bl	20004b1c <csn_put_low>
200049e8:	462b      	mov	r3, r5
200049ea:	4669      	mov	r1, sp
200049ec:	68e0      	ldr	r0, [r4, #12]
200049ee:	aa01      	add	r2, sp, #4
200049f0:	f000 f872 	bl	20004ad8 <spi_manager_transfer>
200049f4:	4605      	mov	r5, r0
200049f6:	78e0      	ldrb	r0, [r4, #3]
200049f8:	f000 f88a 	bl	20004b10 <csn_put_high>
200049fc:	e7bb      	b.n	20004976 <nrf_driver_dyn_payloads_disable+0x16>
200049fe:	68e0      	ldr	r0, [r4, #12]
20004a00:	7466      	strb	r6, [r4, #17]
20004a02:	f000 f867 	bl	20004ad4 <spi_manager_deinit_spi>
20004a06:	4628      	mov	r0, r5
20004a08:	b003      	add	sp, #12
20004a0a:	bdf0      	pop	{r4, r5, r6, r7, pc}
20004a0c:	20005330 	.word	0x20005330

20004a10 <nrf_driver_create_client>:
20004a10:	4914      	ldr	r1, [pc, #80]	@ (20004a64 <nrf_driver_create_client+0x54>)
20004a12:	4b15      	ldr	r3, [pc, #84]	@ (20004a68 <nrf_driver_create_client+0x58>)
20004a14:	e92d 47f0 	stmdb	sp!, {r4, r5, r6, r7, r8, r9, sl, lr}
20004a18:	4a14      	ldr	r2, [pc, #80]	@ (20004a6c <nrf_driver_create_client+0x5c>)
20004a1a:	e9c0 1300 	strd	r1, r3, [r0]
20004a1e:	4c14      	ldr	r4, [pc, #80]	@ (20004a70 <nrf_driver_create_client+0x60>)
20004a20:	4b14      	ldr	r3, [pc, #80]	@ (20004a74 <nrf_driver_create_client+0x64>)
20004a22:	e9c0 4202 	strd	r4, r2, [r0, #8]
20004a26:	6303      	str	r3, [r0, #48]	@ 0x30
20004a28:	f8df a064 	ldr.w	sl, [pc, #100]	@ 20004a90 <nrf_driver_create_client+0x80>
20004a2c:	f8df 9064 	ldr.w	r9, [pc, #100]	@ 20004a94 <nrf_driver_create_client+0x84>
20004a30:	f8df 8064 	ldr.w	r8, [pc, #100]	@ 20004a98 <nrf_driver_create_client+0x88>
20004a34:	f8df e064 	ldr.w	lr, [pc, #100]	@ 20004a9c <nrf_driver_create_client+0x8c>
20004a38:	f8df c064 	ldr.w	ip, [pc, #100]	@ 20004aa0 <nrf_driver_create_client+0x90>
20004a3c:	4f0e      	ldr	r7, [pc, #56]	@ (20004a78 <nrf_driver_create_client+0x68>)
20004a3e:	4e0f      	ldr	r6, [pc, #60]	@ (20004a7c <nrf_driver_create_client+0x6c>)
20004a40:	4d0f      	ldr	r5, [pc, #60]	@ (20004a80 <nrf_driver_create_client+0x70>)
20004a42:	4910      	ldr	r1, [pc, #64]	@ (20004a84 <nrf_driver_create_client+0x74>)
20004a44:	4a10      	ldr	r2, [pc, #64]	@ (20004a88 <nrf_driver_create_client+0x78>)
20004a46:	4b11      	ldr	r3, [pc, #68]	@ (20004a8c <nrf_driver_create_client+0x7c>)
20004a48:	e9c0 a904 	strd	sl, r9, [r0, #16]
20004a4c:	e9c0 8e06 	strd	r8, lr, [r0, #24]
20004a50:	e9c0 c708 	strd	ip, r7, [r0, #32]
20004a54:	e9c0 650a 	strd	r6, r5, [r0, #40]	@ 0x28
20004a58:	e9c0 120d 	strd	r1, r2, [r0, #52]	@ 0x34
20004a5c:	63c3      	str	r3, [r0, #60]	@ 0x3c
20004a5e:	2003      	movs	r0, #3
20004a60:	e8bd 87f0 	ldmia.w	sp!, {r4, r5, r6, r7, r8, r9, sl, pc}
20004a64:	20003c15 	.word	0x20003c15
20004a68:	20003dc5 	.word	0x20003dc5
20004a6c:	20003ce9 	.word	0x20003ce9
20004a70:	20004461 	.word	0x20004461
20004a74:	20003b05 	.word	0x20003b05
20004a78:	20003fb5 	.word	0x20003fb5
20004a7c:	20004185 	.word	0x20004185
20004a80:	200045bd 	.word	0x200045bd
20004a84:	20004355 	.word	0x20004355
20004a88:	20004219 	.word	0x20004219
20004a8c:	20004041 	.word	0x20004041
20004a90:	200042a1 	.word	0x200042a1
20004a94:	200048b1 	.word	0x200048b1
20004a98:	20004961 	.word	0x20004961
20004a9c:	2000411d 	.word	0x2000411d
20004aa0:	20003d79 	.word	0x20003d79

20004aa4 <spi_manager_init_spi>:
20004aa4:	b538      	push	{r3, r4, r5, lr}
20004aa6:	4604      	mov	r4, r0
20004aa8:	f7fe ff9c 	bl	200039e4 <spi_init>
20004aac:	4623      	mov	r3, r4
20004aae:	2502      	movs	r5, #2
20004ab0:	f853 1f04 	ldr.w	r1, [r3, #4]!
20004ab4:	f504 5080 	add.w	r0, r4, #4096	@ 0x1000
20004ab8:	f503 5240 	add.w	r2, r3, #12288	@ 0x3000
20004abc:	6015      	str	r5, [r2, #0]
20004abe:	6822      	ldr	r2, [r4, #0]
20004ac0:	4029      	ands	r1, r5
20004ac2:	f082 0207 	eor.w	r2, r2, #7
20004ac6:	f503 5300 	add.w	r3, r3, #8192	@ 0x2000
20004aca:	f002 02cf 	and.w	r2, r2, #207	@ 0xcf
20004ace:	6002      	str	r2, [r0, #0]
20004ad0:	6019      	str	r1, [r3, #0]
20004ad2:	bd38      	pop	{r3, r4, r5, pc}

20004ad4 <spi_manager_deinit_spi>:
20004ad4:	f7ff b800 	b.w	20003ad8 <spi_deinit>

20004ad8 <spi_manager_transfer>:
20004ad8:	b5f8      	push	{r3, r4, r5, r6, r7, lr}
20004ada:	461d      	mov	r5, r3
20004adc:	4604      	mov	r4, r0
20004ade:	460e      	mov	r6, r1
20004ae0:	4617      	mov	r7, r2
20004ae2:	2002      	movs	r0, #2
20004ae4:	2100      	movs	r1, #0
20004ae6:	f7fc fd63 	bl	200015b0 <sleep_us>
20004aea:	462b      	mov	r3, r5
20004aec:	463a      	mov	r2, r7
20004aee:	4631      	mov	r1, r6
20004af0:	4620      	mov	r0, r4
20004af2:	f7fb fc1b 	bl	2000032c <spi_write_read_blocking>
20004af6:	4604      	mov	r4, r0
20004af8:	2100      	movs	r1, #0
20004afa:	2002      	movs	r0, #2
20004afc:	f7fc fd58 	bl	200015b0 <sleep_us>
20004b00:	b2e0      	uxtb	r0, r4
20004b02:	1b40      	subs	r0, r0, r5
20004b04:	fab0 f080 	clz	r0, r0
20004b08:	0940      	lsrs	r0, r0, #5
20004b0a:	0040      	lsls	r0, r0, #1
20004b0c:	bdf8      	pop	{r3, r4, r5, r6, r7, pc}
20004b0e:	bf00      	nop

20004b10 <csn_put_high>:
20004b10:	f04f 0301 	mov.w	r3, #1
20004b14:	ec43 0040 	gpioc_bit_out_put r0, r3
20004b18:	4770      	bx	lr
20004b1a:	bf00      	nop

20004b1c <csn_put_low>:
20004b1c:	f04f 0300 	mov.w	r3, #0
20004b20:	ec43 0040 	gpioc_bit_out_put r0, r3
20004b24:	4770      	bx	lr
20004b26:	bf00      	nop

20004b28 <ce_put_high>:
20004b28:	f04f 0301 	mov.w	r3, #1
20004b2c:	ec43 0040 	gpioc_bit_out_put r0, r3
20004b30:	4770      	bx	lr
20004b32:	bf00      	nop

20004b34 <ce_put_low>:
20004b34:	f04f 0300 	mov.w	r3, #0
20004b38:	ec43 0040 	gpioc_bit_out_put r0, r3
20004b3c:	4770      	bx	lr
20004b3e:	bf00      	nop

20004b40 <pin_manager_configure>:
20004b40:	b570      	push	{r4, r5, r6, lr}
20004b42:	460d      	mov	r5, r1
20004b44:	f000 0103 	and.w	r1, r0, #3
20004b48:	b082      	sub	sp, #8
20004b4a:	2903      	cmp	r1, #3
20004b4c:	f89d 6018 	ldrb.w	r6, [sp, #24]
20004b50:	d002      	beq.n	20004b58 <pin_manager_configure+0x18>
20004b52:	2000      	movs	r0, #0
20004b54:	b002      	add	sp, #8
20004b56:	bd70      	pop	{r4, r5, r6, pc}
20004b58:	4604      	mov	r4, r0
20004b5a:	f015 0003 	ands.w	r0, r5, #3
20004b5e:	d1f8      	bne.n	20004b52 <pin_manager_configure+0x12>
20004b60:	f002 0103 	and.w	r1, r2, #3
20004b64:	2902      	cmp	r1, #2
20004b66:	d1f5      	bne.n	20004b54 <pin_manager_configure+0x14>
20004b68:	4610      	mov	r0, r2
20004b6a:	2101      	movs	r1, #1
20004b6c:	9301      	str	r3, [sp, #4]
20004b6e:	f7fb fe79 	bl	20000864 <gpio_set_function>
20004b72:	4620      	mov	r0, r4
20004b74:	2101      	movs	r1, #1
20004b76:	f7fb fe75 	bl	20000864 <gpio_set_function>
20004b7a:	2101      	movs	r1, #1
20004b7c:	4628      	mov	r0, r5
20004b7e:	f7fb fe71 	bl	20000864 <gpio_set_function>
20004b82:	4630      	mov	r0, r6
20004b84:	f7fb fef4 	bl	20000970 <gpio_init>
20004b88:	9b01      	ldr	r3, [sp, #4]
20004b8a:	4618      	mov	r0, r3
20004b8c:	f7fb fef0 	bl	20000970 <gpio_init>
20004b90:	f04f 0201 	mov.w	r2, #1
20004b94:	ec42 6044 	gpioc_bit_oe_put r6, r2
20004b98:	9b01      	ldr	r3, [sp, #4]
20004b9a:	ec42 3044 	gpioc_bit_oe_put r3, r2
20004b9e:	2001      	movs	r0, #1
20004ba0:	e7d8      	b.n	20004b54 <pin_manager_configure+0x14>
20004ba2:	bf00      	nop

20004ba4 <__aeabi_uldivmod>:
20004ba4:	b953      	cbnz	r3, 20004bbc <__aeabi_uldivmod+0x18>
20004ba6:	b94a      	cbnz	r2, 20004bbc <__aeabi_uldivmod+0x18>
20004ba8:	2900      	cmp	r1, #0
20004baa:	bf08      	it	eq
20004bac:	2800      	cmpeq	r0, #0
20004bae:	bf1c      	itt	ne
20004bb0:	f04f 31ff 	movne.w	r1, #4294967295
20004bb4:	f04f 30ff 	movne.w	r0, #4294967295
20004bb8:	f000 b9b2 	b.w	20004f20 <__aeabi_idiv0>
20004bbc:	f1ad 0c08 	sub.w	ip, sp, #8
20004bc0:	e96d ce04 	strd	ip, lr, [sp, #-16]!
20004bc4:	f000 f806 	bl	20004bd4 <__udivmoddi4>
20004bc8:	f8dd e004 	ldr.w	lr, [sp, #4]
20004bcc:	e9dd 2302 	ldrd	r2, r3, [sp, #8]
20004bd0:	b004      	add	sp, #16
20004bd2:	4770      	bx	lr

20004bd4 <__udivmoddi4>:
20004bd4:	e92d 4ff0 	stmdb	sp!, {r4, r5, r6, r7, r8, r9, sl, fp, lr}
20004bd8:	468c      	mov	ip, r1
20004bda:	9e09      	ldr	r6, [sp, #36]	@ 0x24
20004bdc:	4604      	mov	r4, r0
20004bde:	460f      	mov	r7, r1
20004be0:	2b00      	cmp	r3, #0
20004be2:	d148      	bne.n	20004c76 <__udivmoddi4+0xa2>
20004be4:	428a      	cmp	r2, r1
20004be6:	4615      	mov	r5, r2
20004be8:	d95e      	bls.n	20004ca8 <__udivmoddi4+0xd4>
20004bea:	fab2 f382 	clz	r3, r2
20004bee:	b13b      	cbz	r3, 20004c00 <__udivmoddi4+0x2c>
20004bf0:	f1c3 0220 	rsb	r2, r3, #32
20004bf4:	409f      	lsls	r7, r3
20004bf6:	409d      	lsls	r5, r3
20004bf8:	409c      	lsls	r4, r3
20004bfa:	fa20 f202 	lsr.w	r2, r0, r2
20004bfe:	4317      	orrs	r7, r2
20004c00:	ea4f 4e15 	mov.w	lr, r5, lsr #16
20004c04:	fa1f fc85 	uxth.w	ip, r5
20004c08:	0c22      	lsrs	r2, r4, #16
20004c0a:	fbb7 f1fe 	udiv	r1, r7, lr
20004c0e:	fb0e 7711 	mls	r7, lr, r1, r7
20004c12:	fb01 f00c 	mul.w	r0, r1, ip
20004c16:	ea42 4207 	orr.w	r2, r2, r7, lsl #16
20004c1a:	4290      	cmp	r0, r2
20004c1c:	d907      	bls.n	20004c2e <__udivmoddi4+0x5a>
20004c1e:	18aa      	adds	r2, r5, r2
20004c20:	f101 37ff 	add.w	r7, r1, #4294967295
20004c24:	d202      	bcs.n	20004c2c <__udivmoddi4+0x58>
20004c26:	4290      	cmp	r0, r2
20004c28:	f200 8158 	bhi.w	20004edc <__udivmoddi4+0x308>
20004c2c:	4639      	mov	r1, r7
20004c2e:	1a12      	subs	r2, r2, r0
20004c30:	b2a4      	uxth	r4, r4
20004c32:	fbb2 f0fe 	udiv	r0, r2, lr
20004c36:	fb0e 2210 	mls	r2, lr, r0, r2
20004c3a:	fb00 fc0c 	mul.w	ip, r0, ip
20004c3e:	ea44 4402 	orr.w	r4, r4, r2, lsl #16
20004c42:	45a4      	cmp	ip, r4
20004c44:	d90b      	bls.n	20004c5e <__udivmoddi4+0x8a>
20004c46:	192c      	adds	r4, r5, r4
20004c48:	f100 32ff 	add.w	r2, r0, #4294967295
20004c4c:	bf2c      	ite	cs
20004c4e:	2701      	movcs	r7, #1
20004c50:	2700      	movcc	r7, #0
20004c52:	45a4      	cmp	ip, r4
20004c54:	d902      	bls.n	20004c5c <__udivmoddi4+0x88>
20004c56:	2f00      	cmp	r7, #0
20004c58:	f000 8143 	beq.w	20004ee2 <__udivmoddi4+0x30e>
20004c5c:	4610      	mov	r0, r2
20004c5e:	ea40 4001 	orr.w	r0, r0, r1, lsl #16
20004c62:	eba4 040c 	sub.w	r4, r4, ip
20004c66:	2100      	movs	r1, #0
20004c68:	b11e      	cbz	r6, 20004c72 <__udivmoddi4+0x9e>
20004c6a:	40dc      	lsrs	r4, r3
20004c6c:	2300      	movs	r3, #0
20004c6e:	e9c6 4300 	strd	r4, r3, [r6]
20004c72:	e8bd 8ff0 	ldmia.w	sp!, {r4, r5, r6, r7, r8, r9, sl, fp, pc}
20004c76:	428b      	cmp	r3, r1
20004c78:	d906      	bls.n	20004c88 <__udivmoddi4+0xb4>
20004c7a:	b10e      	cbz	r6, 20004c80 <__udivmoddi4+0xac>
20004c7c:	e9c6 0100 	strd	r0, r1, [r6]
20004c80:	2100      	movs	r1, #0
20004c82:	4608      	mov	r0, r1
20004c84:	e8bd 8ff0 	ldmia.w	sp!, {r4, r5, r6, r7, r8, r9, sl, fp, pc}
20004c88:	fab3 f183 	clz	r1, r3
20004c8c:	2900      	cmp	r1, #0
20004c8e:	d151      	bne.n	20004d34 <__udivmoddi4+0x160>
20004c90:	4563      	cmp	r3, ip
20004c92:	f0c0 8116 	bcc.w	20004ec2 <__udivmoddi4+0x2ee>
20004c96:	4282      	cmp	r2, r0
20004c98:	f240 8113 	bls.w	20004ec2 <__udivmoddi4+0x2ee>
20004c9c:	4608      	mov	r0, r1
20004c9e:	2e00      	cmp	r6, #0
20004ca0:	d0e7      	beq.n	20004c72 <__udivmoddi4+0x9e>
20004ca2:	e9c6 4700 	strd	r4, r7, [r6]
20004ca6:	e7e4      	b.n	20004c72 <__udivmoddi4+0x9e>
20004ca8:	2a00      	cmp	r2, #0
20004caa:	f000 80af 	beq.w	20004e0c <__udivmoddi4+0x238>
20004cae:	fab2 f382 	clz	r3, r2
20004cb2:	2b00      	cmp	r3, #0
20004cb4:	f040 80c2 	bne.w	20004e3c <__udivmoddi4+0x268>
20004cb8:	1a8a      	subs	r2, r1, r2
20004cba:	ea4f 4e15 	mov.w	lr, r5, lsr #16
20004cbe:	b2af      	uxth	r7, r5
20004cc0:	2101      	movs	r1, #1
20004cc2:	0c20      	lsrs	r0, r4, #16
20004cc4:	fbb2 fcfe 	udiv	ip, r2, lr
20004cc8:	fb0e 221c 	mls	r2, lr, ip, r2
20004ccc:	ea40 4202 	orr.w	r2, r0, r2, lsl #16
20004cd0:	fb07 f00c 	mul.w	r0, r7, ip
20004cd4:	4290      	cmp	r0, r2
20004cd6:	d90e      	bls.n	20004cf6 <__udivmoddi4+0x122>
20004cd8:	18aa      	adds	r2, r5, r2
20004cda:	f10c 38ff 	add.w	r8, ip, #4294967295
20004cde:	bf2c      	ite	cs
20004ce0:	f04f 0901 	movcs.w	r9, #1
20004ce4:	f04f 0900 	movcc.w	r9, #0
20004ce8:	4290      	cmp	r0, r2
20004cea:	d903      	bls.n	20004cf4 <__udivmoddi4+0x120>
20004cec:	f1b9 0f00 	cmp.w	r9, #0
20004cf0:	f000 80f0 	beq.w	20004ed4 <__udivmoddi4+0x300>
20004cf4:	46c4      	mov	ip, r8
20004cf6:	1a12      	subs	r2, r2, r0
20004cf8:	b2a4      	uxth	r4, r4
20004cfa:	fbb2 f0fe 	udiv	r0, r2, lr
20004cfe:	fb0e 2210 	mls	r2, lr, r0, r2
20004d02:	fb00 f707 	mul.w	r7, r0, r7
20004d06:	ea44 4402 	orr.w	r4, r4, r2, lsl #16
20004d0a:	42a7      	cmp	r7, r4
20004d0c:	d90e      	bls.n	20004d2c <__udivmoddi4+0x158>
20004d0e:	192c      	adds	r4, r5, r4
20004d10:	f100 32ff 	add.w	r2, r0, #4294967295
20004d14:	bf2c      	ite	cs
20004d16:	f04f 0e01 	movcs.w	lr, #1
20004d1a:	f04f 0e00 	movcc.w	lr, #0
20004d1e:	42a7      	cmp	r7, r4
20004d20:	d903      	bls.n	20004d2a <__udivmoddi4+0x156>
20004d22:	f1be 0f00 	cmp.w	lr, #0
20004d26:	f000 80d2 	beq.w	20004ece <__udivmoddi4+0x2fa>
20004d2a:	4610      	mov	r0, r2
20004d2c:	1be4      	subs	r4, r4, r7
20004d2e:	ea40 400c 	orr.w	r0, r0, ip, lsl #16
20004d32:	e799      	b.n	20004c68 <__udivmoddi4+0x94>
20004d34:	f1c1 0520 	rsb	r5, r1, #32
20004d38:	408b      	lsls	r3, r1
20004d3a:	fa0c f401 	lsl.w	r4, ip, r1
20004d3e:	fa00 f901 	lsl.w	r9, r0, r1
20004d42:	fa22 f705 	lsr.w	r7, r2, r5
20004d46:	fa2c fc05 	lsr.w	ip, ip, r5
20004d4a:	408a      	lsls	r2, r1
20004d4c:	431f      	orrs	r7, r3
20004d4e:	fa20 f305 	lsr.w	r3, r0, r5
20004d52:	0c38      	lsrs	r0, r7, #16
20004d54:	4323      	orrs	r3, r4
20004d56:	fa1f fe87 	uxth.w	lr, r7
20004d5a:	0c1c      	lsrs	r4, r3, #16
20004d5c:	fbbc f8f0 	udiv	r8, ip, r0
20004d60:	fb00 cc18 	mls	ip, r0, r8, ip
20004d64:	ea44 440c 	orr.w	r4, r4, ip, lsl #16
20004d68:	fb08 fc0e 	mul.w	ip, r8, lr
20004d6c:	45a4      	cmp	ip, r4
20004d6e:	d90e      	bls.n	20004d8e <__udivmoddi4+0x1ba>
20004d70:	193c      	adds	r4, r7, r4
20004d72:	f108 3aff 	add.w	sl, r8, #4294967295
20004d76:	bf2c      	ite	cs
20004d78:	f04f 0b01 	movcs.w	fp, #1
20004d7c:	f04f 0b00 	movcc.w	fp, #0
20004d80:	45a4      	cmp	ip, r4
20004d82:	d903      	bls.n	20004d8c <__udivmoddi4+0x1b8>
20004d84:	f1bb 0f00 	cmp.w	fp, #0
20004d88:	f000 80b8 	beq.w	20004efc <__udivmoddi4+0x328>
20004d8c:	46d0      	mov	r8, sl
20004d8e:	eba4 040c 	sub.w	r4, r4, ip
20004d92:	fa1f fc83 	uxth.w	ip, r3
20004d96:	fbb4 f3f0 	udiv	r3, r4, r0
20004d9a:	fb00 4413 	mls	r4, r0, r3, r4
20004d9e:	fb03 fe0e 	mul.w	lr, r3, lr
20004da2:	ea4c 4404 	orr.w	r4, ip, r4, lsl #16
20004da6:	45a6      	cmp	lr, r4
20004da8:	d90e      	bls.n	20004dc8 <__udivmoddi4+0x1f4>
20004daa:	193c      	adds	r4, r7, r4
20004dac:	f103 30ff 	add.w	r0, r3, #4294967295
20004db0:	bf2c      	ite	cs
20004db2:	f04f 0c01 	movcs.w	ip, #1
20004db6:	f04f 0c00 	movcc.w	ip, #0
20004dba:	45a6      	cmp	lr, r4
20004dbc:	d903      	bls.n	20004dc6 <__udivmoddi4+0x1f2>
20004dbe:	f1bc 0f00 	cmp.w	ip, #0
20004dc2:	f000 809f 	beq.w	20004f04 <__udivmoddi4+0x330>
20004dc6:	4603      	mov	r3, r0
20004dc8:	ea43 4008 	orr.w	r0, r3, r8, lsl #16
20004dcc:	eba4 040e 	sub.w	r4, r4, lr
20004dd0:	fba0 ec02 	umull	lr, ip, r0, r2
20004dd4:	4564      	cmp	r4, ip
20004dd6:	4673      	mov	r3, lr
20004dd8:	46e0      	mov	r8, ip
20004dda:	d302      	bcc.n	20004de2 <__udivmoddi4+0x20e>
20004ddc:	d107      	bne.n	20004dee <__udivmoddi4+0x21a>
20004dde:	45f1      	cmp	r9, lr
20004de0:	d205      	bcs.n	20004dee <__udivmoddi4+0x21a>
20004de2:	ebbe 0302 	subs.w	r3, lr, r2
20004de6:	eb6c 0c07 	sbc.w	ip, ip, r7
20004dea:	3801      	subs	r0, #1
20004dec:	46e0      	mov	r8, ip
20004dee:	b15e      	cbz	r6, 20004e08 <__udivmoddi4+0x234>
20004df0:	ebb9 0203 	subs.w	r2, r9, r3
20004df4:	eb64 0408 	sbc.w	r4, r4, r8
20004df8:	fa04 f505 	lsl.w	r5, r4, r5
20004dfc:	fa22 f301 	lsr.w	r3, r2, r1
20004e00:	40cc      	lsrs	r4, r1
20004e02:	431d      	orrs	r5, r3
20004e04:	e9c6 5400 	strd	r5, r4, [r6]
20004e08:	2100      	movs	r1, #0
20004e0a:	e732      	b.n	20004c72 <__udivmoddi4+0x9e>
20004e0c:	0842      	lsrs	r2, r0, #1
20004e0e:	462f      	mov	r7, r5
20004e10:	084b      	lsrs	r3, r1, #1
20004e12:	46ac      	mov	ip, r5
20004e14:	ea42 72c1 	orr.w	r2, r2, r1, lsl #31
20004e18:	46ae      	mov	lr, r5
20004e1a:	07c4      	lsls	r4, r0, #31
20004e1c:	0c11      	lsrs	r1, r2, #16
20004e1e:	b292      	uxth	r2, r2
20004e20:	ea41 4103 	orr.w	r1, r1, r3, lsl #16
20004e24:	ea42 4201 	orr.w	r2, r2, r1, lsl #16
20004e28:	fbb1 f1f5 	udiv	r1, r1, r5
20004e2c:	fbb3 f0f5 	udiv	r0, r3, r5
20004e30:	231f      	movs	r3, #31
20004e32:	eba2 020c 	sub.w	r2, r2, ip
20004e36:	ea41 4100 	orr.w	r1, r1, r0, lsl #16
20004e3a:	e742      	b.n	20004cc2 <__udivmoddi4+0xee>
20004e3c:	409d      	lsls	r5, r3
20004e3e:	f1c3 0220 	rsb	r2, r3, #32
20004e42:	4099      	lsls	r1, r3
20004e44:	409c      	lsls	r4, r3
20004e46:	fa2c fc02 	lsr.w	ip, ip, r2
20004e4a:	ea4f 4e15 	mov.w	lr, r5, lsr #16
20004e4e:	fa20 f202 	lsr.w	r2, r0, r2
20004e52:	b2af      	uxth	r7, r5
20004e54:	fbbc f8fe 	udiv	r8, ip, lr
20004e58:	430a      	orrs	r2, r1
20004e5a:	fb0e cc18 	mls	ip, lr, r8, ip
20004e5e:	0c11      	lsrs	r1, r2, #16
20004e60:	ea41 410c 	orr.w	r1, r1, ip, lsl #16
20004e64:	fb08 fc07 	mul.w	ip, r8, r7
20004e68:	458c      	cmp	ip, r1
20004e6a:	d950      	bls.n	20004f0e <__udivmoddi4+0x33a>
20004e6c:	1869      	adds	r1, r5, r1
20004e6e:	f108 30ff 	add.w	r0, r8, #4294967295
20004e72:	bf2c      	ite	cs
20004e74:	f04f 0901 	movcs.w	r9, #1
20004e78:	f04f 0900 	movcc.w	r9, #0
20004e7c:	458c      	cmp	ip, r1
20004e7e:	d902      	bls.n	20004e86 <__udivmoddi4+0x2b2>
20004e80:	f1b9 0f00 	cmp.w	r9, #0
20004e84:	d030      	beq.n	20004ee8 <__udivmoddi4+0x314>
20004e86:	eba1 010c 	sub.w	r1, r1, ip
20004e8a:	fbb1 f8fe 	udiv	r8, r1, lr
20004e8e:	fb08 fc07 	mul.w	ip, r8, r7
20004e92:	fb0e 1118 	mls	r1, lr, r8, r1
20004e96:	b292      	uxth	r2, r2
20004e98:	ea42 4201 	orr.w	r2, r2, r1, lsl #16
20004e9c:	4562      	cmp	r2, ip
20004e9e:	d234      	bcs.n	20004f0a <__udivmoddi4+0x336>
20004ea0:	18aa      	adds	r2, r5, r2
20004ea2:	f108 31ff 	add.w	r1, r8, #4294967295
20004ea6:	bf2c      	ite	cs
20004ea8:	f04f 0901 	movcs.w	r9, #1
20004eac:	f04f 0900 	movcc.w	r9, #0
20004eb0:	4562      	cmp	r2, ip
20004eb2:	d2be      	bcs.n	20004e32 <__udivmoddi4+0x25e>
20004eb4:	f1b9 0f00 	cmp.w	r9, #0
20004eb8:	d1bb      	bne.n	20004e32 <__udivmoddi4+0x25e>
20004eba:	f1a8 0102 	sub.w	r1, r8, #2
20004ebe:	442a      	add	r2, r5
20004ec0:	e7b7      	b.n	20004e32 <__udivmoddi4+0x25e>
20004ec2:	1a84      	subs	r4, r0, r2
20004ec4:	eb6c 0203 	sbc.w	r2, ip, r3
20004ec8:	2001      	movs	r0, #1
20004eca:	4617      	mov	r7, r2
20004ecc:	e6e7      	b.n	20004c9e <__udivmoddi4+0xca>
20004ece:	442c      	add	r4, r5
20004ed0:	3802      	subs	r0, #2
20004ed2:	e72b      	b.n	20004d2c <__udivmoddi4+0x158>
20004ed4:	f1ac 0c02 	sub.w	ip, ip, #2
20004ed8:	442a      	add	r2, r5
20004eda:	e70c      	b.n	20004cf6 <__udivmoddi4+0x122>
20004edc:	3902      	subs	r1, #2
20004ede:	442a      	add	r2, r5
20004ee0:	e6a5      	b.n	20004c2e <__udivmoddi4+0x5a>
20004ee2:	442c      	add	r4, r5
20004ee4:	3802      	subs	r0, #2
20004ee6:	e6ba      	b.n	20004c5e <__udivmoddi4+0x8a>
20004ee8:	eba5 0c0c 	sub.w	ip, r5, ip
20004eec:	f1a8 0002 	sub.w	r0, r8, #2
20004ef0:	4461      	add	r1, ip
20004ef2:	fbb1 f8fe 	udiv	r8, r1, lr
20004ef6:	fb08 fc07 	mul.w	ip, r8, r7
20004efa:	e7ca      	b.n	20004e92 <__udivmoddi4+0x2be>
20004efc:	f1a8 0802 	sub.w	r8, r8, #2
20004f00:	443c      	add	r4, r7
20004f02:	e744      	b.n	20004d8e <__udivmoddi4+0x1ba>
20004f04:	3b02      	subs	r3, #2
20004f06:	443c      	add	r4, r7
20004f08:	e75e      	b.n	20004dc8 <__udivmoddi4+0x1f4>
20004f0a:	4641      	mov	r1, r8
20004f0c:	e791      	b.n	20004e32 <__udivmoddi4+0x25e>
20004f0e:	eba1 010c 	sub.w	r1, r1, ip
20004f12:	4640      	mov	r0, r8
20004f14:	fbb1 f8fe 	udiv	r8, r1, lr
20004f18:	fb08 fc07 	mul.w	ip, r8, r7
20004f1c:	e7b9      	b.n	20004e92 <__udivmoddi4+0x2be>
20004f1e:	bf00      	nop

20004f20 <__aeabi_idiv0>:
20004f20:	4770      	bx	lr
20004f22:	bf00      	nop

20004f24 <memset>:
20004f24:	0783      	lsls	r3, r0, #30
20004f26:	b530      	push	{r4, r5, lr}
20004f28:	d046      	beq.n	20004fb8 <memset+0x94>
20004f2a:	1884      	adds	r4, r0, r2
20004f2c:	4684      	mov	ip, r0
20004f2e:	e004      	b.n	20004f3a <memset+0x16>
20004f30:	f803 1b01 	strb.w	r1, [r3], #1
20004f34:	079d      	lsls	r5, r3, #30
20004f36:	d004      	beq.n	20004f42 <memset+0x1e>
20004f38:	469c      	mov	ip, r3
20004f3a:	45a4      	cmp	ip, r4
20004f3c:	4663      	mov	r3, ip
20004f3e:	d1f7      	bne.n	20004f30 <memset+0xc>
20004f40:	bd30      	pop	{r4, r5, pc}
20004f42:	3a01      	subs	r2, #1
20004f44:	4402      	add	r2, r0
20004f46:	eba2 020c 	sub.w	r2, r2, ip
20004f4a:	2a03      	cmp	r2, #3
20004f4c:	d929      	bls.n	20004fa2 <memset+0x7e>
20004f4e:	b2cc      	uxtb	r4, r1
20004f50:	2a0f      	cmp	r2, #15
20004f52:	eb04 2404 	add.w	r4, r4, r4, lsl #8
20004f56:	eb04 4404 	add.w	r4, r4, r4, lsl #16
20004f5a:	d92f      	bls.n	20004fbc <memset+0x98>
20004f5c:	f1a2 0c10 	sub.w	ip, r2, #16
20004f60:	f103 0510 	add.w	r5, r3, #16
20004f64:	f02c 0c0f 	bic.w	ip, ip, #15
20004f68:	44ac      	add	ip, r5
20004f6a:	e9c3 4400 	strd	r4, r4, [r3]
20004f6e:	e9c3 4402 	strd	r4, r4, [r3, #8]
20004f72:	3310      	adds	r3, #16
20004f74:	4563      	cmp	r3, ip
20004f76:	d1f8      	bne.n	20004f6a <memset+0x46>
20004f78:	f012 0f0c 	tst.w	r2, #12
20004f7c:	f002 0e0f 	and.w	lr, r2, #15
20004f80:	d018      	beq.n	20004fb4 <memset+0x90>
20004f82:	f02e 0c03 	bic.w	ip, lr, #3
20004f86:	f1ae 0504 	sub.w	r5, lr, #4
20004f8a:	461a      	mov	r2, r3
20004f8c:	449c      	add	ip, r3
20004f8e:	f842 4b04 	str.w	r4, [r2], #4
20004f92:	4562      	cmp	r2, ip
20004f94:	d1fb      	bne.n	20004f8e <memset+0x6a>
20004f96:	f025 0403 	bic.w	r4, r5, #3
20004f9a:	3304      	adds	r3, #4
20004f9c:	f00e 0203 	and.w	r2, lr, #3
20004fa0:	4423      	add	r3, r4
20004fa2:	2a00      	cmp	r2, #0
20004fa4:	d0cc      	beq.n	20004f40 <memset+0x1c>
20004fa6:	b2c9      	uxtb	r1, r1
20004fa8:	441a      	add	r2, r3
20004faa:	f803 1b01 	strb.w	r1, [r3], #1
20004fae:	4293      	cmp	r3, r2
20004fb0:	d1fb      	bne.n	20004faa <memset+0x86>
20004fb2:	bd30      	pop	{r4, r5, pc}
20004fb4:	4672      	mov	r2, lr
20004fb6:	e7f4      	b.n	20004fa2 <memset+0x7e>
20004fb8:	4603      	mov	r3, r0
20004fba:	e7c6      	b.n	20004f4a <memset+0x26>
20004fbc:	4696      	mov	lr, r2
20004fbe:	e7e0      	b.n	20004f82 <memset+0x5e>

20004fc0 <memcpy>:
20004fc0:	4684      	mov	ip, r0
20004fc2:	ea41 0300 	orr.w	r3, r1, r0
20004fc6:	f013 0303 	ands.w	r3, r3, #3
20004fca:	d149      	bne.n	20005060 <memcpy+0xa0>
20004fcc:	3a40      	subs	r2, #64	@ 0x40
20004fce:	d323      	bcc.n	20005018 <memcpy+0x58>
20004fd0:	680b      	ldr	r3, [r1, #0]
20004fd2:	6003      	str	r3, [r0, #0]
20004fd4:	684b      	ldr	r3, [r1, #4]
20004fd6:	6043      	str	r3, [r0, #4]
20004fd8:	688b      	ldr	r3, [r1, #8]
20004fda:	6083      	str	r3, [r0, #8]
20004fdc:	68cb      	ldr	r3, [r1, #12]
20004fde:	60c3      	str	r3, [r0, #12]
20004fe0:	690b      	ldr	r3, [r1, #16]
20004fe2:	6103      	str	r3, [r0, #16]
20004fe4:	694b      	ldr	r3, [r1, #20]
20004fe6:	6143      	str	r3, [r0, #20]
20004fe8:	698b      	ldr	r3, [r1, #24]
20004fea:	6183      	str	r3, [r0, #24]
20004fec:	69cb      	ldr	r3, [r1, #28]
20004fee:	61c3      	str	r3, [r0, #28]
20004ff0:	6a0b      	ldr	r3, [r1, #32]
20004ff2:	6203      	str	r3, [r0, #32]
20004ff4:	6a4b      	ldr	r3, [r1, #36]	@ 0x24
20004ff6:	6243      	str	r3, [r0, #36]	@ 0x24
20004ff8:	6a8b      	ldr	r3, [r1, #40]	@ 0x28
20004ffa:	6283      	str	r3, [r0, #40]	@ 0x28
20004ffc:	6acb      	ldr	r3, [r1, #44]	@ 0x2c
20004ffe:	62c3      	str	r3, [r0, #44]	@ 0x2c
20005000:	6b0b      	ldr	r3, [r1, #48]	@ 0x30
20005002:	6303      	str	r3, [r0, #48]	@ 0x30
20005004:	6b4b      	ldr	r3, [r1, #52]	@ 0x34
20005006:	6343      	str	r3, [r0, #52]	@ 0x34
20005008:	6b8b      	ldr	r3, [r1, #56]	@ 0x38
2000500a:	6383      	str	r3, [r0, #56]	@ 0x38
2000500c:	6bcb      	ldr	r3, [r1, #60]	@ 0x3c
2000500e:	63c3      	str	r3, [r0, #60]	@ 0x3c
20005010:	3040      	adds	r0, #64	@ 0x40
20005012:	3140      	adds	r1, #64	@ 0x40
20005014:	3a40      	subs	r2, #64	@ 0x40
20005016:	d2db      	bcs.n	20004fd0 <memcpy+0x10>
20005018:	3230      	adds	r2, #48	@ 0x30
2000501a:	d30b      	bcc.n	20005034 <memcpy+0x74>
2000501c:	680b      	ldr	r3, [r1, #0]
2000501e:	6003      	str	r3, [r0, #0]
20005020:	684b      	ldr	r3, [r1, #4]
20005022:	6043      	str	r3, [r0, #4]
20005024:	688b      	ldr	r3, [r1, #8]
20005026:	6083      	str	r3, [r0, #8]
20005028:	68cb      	ldr	r3, [r1, #12]
2000502a:	60c3      	str	r3, [r0, #12]
2000502c:	3010      	adds	r0, #16
2000502e:	3110      	adds	r1, #16
20005030:	3a10      	subs	r2, #16
20005032:	d2f3      	bcs.n	2000501c <memcpy+0x5c>
20005034:	320c      	adds	r2, #12
20005036:	d305      	bcc.n	20005044 <memcpy+0x84>
20005038:	f851 3b04 	ldr.w	r3, [r1], #4
2000503c:	f840 3b04 	str.w	r3, [r0], #4
20005040:	3a04      	subs	r2, #4
20005042:	d2f9      	bcs.n	20005038 <memcpy+0x78>
20005044:	3204      	adds	r2, #4
20005046:	d008      	beq.n	2000505a <memcpy+0x9a>
20005048:	07d2      	lsls	r2, r2, #31
2000504a:	bf1c      	itt	ne
2000504c:	f811 3b01 	ldrbne.w	r3, [r1], #1
20005050:	f800 3b01 	strbne.w	r3, [r0], #1
20005054:	d301      	bcc.n	2000505a <memcpy+0x9a>
20005056:	880b      	ldrh	r3, [r1, #0]
20005058:	8003      	strh	r3, [r0, #0]
2000505a:	4660      	mov	r0, ip
2000505c:	4770      	bx	lr
2000505e:	bf00      	nop
20005060:	2a08      	cmp	r2, #8
20005062:	d313      	bcc.n	2000508c <memcpy+0xcc>
20005064:	078b      	lsls	r3, r1, #30
20005066:	d0b1      	beq.n	20004fcc <memcpy+0xc>
20005068:	f010 0303 	ands.w	r3, r0, #3
2000506c:	d0ae      	beq.n	20004fcc <memcpy+0xc>
2000506e:	f1c3 0304 	rsb	r3, r3, #4
20005072:	1ad2      	subs	r2, r2, r3
20005074:	07db      	lsls	r3, r3, #31
20005076:	bf1c      	itt	ne
20005078:	f811 3b01 	ldrbne.w	r3, [r1], #1
2000507c:	f800 3b01 	strbne.w	r3, [r0], #1
20005080:	d3a4      	bcc.n	20004fcc <memcpy+0xc>
20005082:	f831 3b02 	ldrh.w	r3, [r1], #2
20005086:	f820 3b02 	strh.w	r3, [r0], #2
2000508a:	e79f      	b.n	20004fcc <memcpy+0xc>
2000508c:	3a04      	subs	r2, #4
2000508e:	d3d9      	bcc.n	20005044 <memcpy+0x84>
20005090:	3a01      	subs	r2, #1
20005092:	f811 3b01 	ldrb.w	r3, [r1], #1
20005096:	f800 3b01 	strb.w	r3, [r0], #1
2000509a:	d2f9      	bcs.n	20005090 <memcpy+0xd0>
2000509c:	780b      	ldrb	r3, [r1, #0]
2000509e:	7003      	strb	r3, [r0, #0]
200050a0:	784b      	ldrb	r3, [r1, #1]
200050a2:	7043      	strb	r3, [r0, #1]
200050a4:	788b      	ldrb	r3, [r1, #2]
200050a6:	7083      	strb	r3, [r0, #2]
200050a8:	4660      	mov	r0, ip
200050aa:	4770      	bx	lr

200050ac <strlen>:
200050ac:	f020 0103 	bic.w	r1, r0, #3
200050b0:	f010 0003 	ands.w	r0, r0, #3
200050b4:	f1c0 0000 	rsb	r0, r0, #0
200050b8:	f851 3b04 	ldr.w	r3, [r1], #4
200050bc:	f100 0c04 	add.w	ip, r0, #4
200050c0:	ea4f 0ccc 	mov.w	ip, ip, lsl #3
200050c4:	f06f 0200 	mvn.w	r2, #0
200050c8:	bf1c      	itt	ne
200050ca:	fa22 f20c 	lsrne.w	r2, r2, ip
200050ce:	4313      	orrne	r3, r2
200050d0:	f04f 0c01 	mov.w	ip, #1
200050d4:	ea4c 2c0c 	orr.w	ip, ip, ip, lsl #8
200050d8:	ea4c 4c0c 	orr.w	ip, ip, ip, lsl #16
200050dc:	eba3 020c 	sub.w	r2, r3, ip
200050e0:	ea22 0203 	bic.w	r2, r2, r3
200050e4:	ea12 12cc 	ands.w	r2, r2, ip, lsl #7
200050e8:	bf04      	itt	eq
200050ea:	f851 3b04 	ldreq.w	r3, [r1], #4
200050ee:	3004      	addeq	r0, #4
200050f0:	d0f4      	beq.n	200050dc <strlen+0x30>
200050f2:	f1c2 0100 	rsb	r1, r2, #0
200050f6:	ea02 0201 	and.w	r2, r2, r1
200050fa:	fab2 f282 	clz	r2, r2
200050fe:	f1c2 021f 	rsb	r2, r2, #31
20005102:	eb00 00d2 	add.w	r0, r0, r2, lsr #3
20005106:	4770      	bx	lr
